

Microchip MPLAB XC8 Assembler V2.31 build 20201012212115 
                                                                                               Sat Mar 06 17:30:29 2021

Microchip MPLAB XC8 C Compiler v2.31 (Free license) build 20201012212115 Og1 
     1                           	processor	16F887
     2                           	pagewidth 120
     3                           	opt	flic
     4                           	psect	strings,global,class=STRING,delta=2,noexec
     5                           	psect	cinit,global,class=CODE,merge=1,delta=2
     6                           	psect	bssBANK0,global,class=BANK0,space=1,delta=1,noexec
     7                           	psect	bssBANK1,global,class=BANK1,space=1,delta=1,noexec
     8                           	psect	clrtext,global,class=CODE,delta=2
     9                           	psect	cstackCOMMON,global,class=COMMON,space=1,delta=1,noexec
    10                           	psect	cstackBANK0,global,class=BANK0,space=1,delta=1,noexec
    11                           	psect	maintext,global,class=CODE,split=1,delta=2
    12                           	psect	text1,local,class=CODE,merge=1,delta=2,group=3
    13                           	psect	text2,local,class=CODE,merge=1,delta=2,group=1
    14                           	psect	text3,local,class=CODE,merge=1,delta=2,group=3
    15                           	psect	text4,local,class=CODE,merge=1,delta=2,group=2
    16                           	psect	text5,local,class=CODE,merge=1,delta=2,group=2
    17                           	psect	text6,local,class=CODE,merge=1,delta=2,group=2
    18                           	psect	text7,local,class=CODE,merge=1,delta=2,group=2
    19                           	psect	text8,local,class=CODE,merge=1,delta=2,group=2
    20                           	psect	text9,local,class=CODE,merge=1,delta=2,group=2
    21                           	psect	text10,local,class=CODE,merge=1,delta=2,group=2
    22                           	psect	text11,local,class=CODE,merge=1,delta=2,group=2
    23                           	psect	text12,local,class=CODE,merge=1,delta=2,group=2
    24                           	psect	text13,local,class=CODE,merge=1,delta=2,group=2
    25                           	psect	text14,local,class=CODE,merge=1,delta=2
    26                           	psect	text15,local,class=CODE,merge=1,delta=2
    27                           	psect	text16,local,class=CODE,merge=1,delta=2
    28                           	psect	text17,local,class=CODE,merge=1,delta=2,group=2
    29                           	psect	text18,local,class=CODE,merge=1,delta=2
    30                           	psect	text19,local,class=CODE,merge=1,delta=2
    31                           	psect	text20,local,class=CODE,merge=1,delta=2
    32                           	psect	text21,local,class=CODE,merge=1,delta=2
    33                           	psect	text22,local,class=CODE,merge=1,delta=2
    34                           	psect	text23,local,class=CODE,merge=1,delta=2
    35                           	psect	text24,local,class=CODE,merge=1,delta=2
    36                           	psect	text25,local,class=CODE,merge=1,delta=2
    37                           	psect	text26,local,class=CODE,merge=1,delta=2
    38                           	psect	text27,local,class=CODE,merge=1,delta=2
    39                           	psect	text28,local,class=CODE,merge=1,delta=2
    40                           	psect	text29,local,class=CODE,merge=1,delta=2
    41                           	psect	intentry,global,class=CODE,delta=2
    42                           	psect	config,global,abs,ovrld,class=CONFIG,space=4,delta=2,noexec
    43                           	dabs	1,0x7E,2
    44  0000                     
    45                           ; Version 2.20
    46                           ; Generated 12/02/2020 GMT
    47                           ; 
    48                           ; Copyright © 2020, Microchip Technology Inc. and its subsidiaries ("Microchip")
    49                           ; All rights reserved.
    50                           ; 
    51                           ; This software is developed by Microchip Technology Inc. and its subsidiaries ("Microch
      +                          ip").
    52                           ; 
    53                           ; Redistribution and use in source and binary forms, with or without modification, are
    54                           ; permitted provided that the following conditions are met:
    55                           ; 
    56                           ;     1. Redistributions of source code must retain the above copyright notice, this lis
      +                          t of
    57                           ;        conditions and the following disclaimer.
    58                           ; 
    59                           ;     2. Redistributions in binary form must reproduce the above copyright notice, this 
      +                          list
    60                           ;        of conditions and the following disclaimer in the documentation and/or other
    61                           ;        materials provided with the distribution.
    62                           ; 
    63                           ;     3. Microchip's name may not be used to endorse or promote products derived from th
      +                          is
    64                           ;        software without specific prior written permission.
    65                           ; 
    66                           ; THIS SOFTWARE IS PROVIDED BY MICROCHIP "AS IS" AND ANY EXPRESS OR IMPLIED WARRANTIES,
    67                           ; INCLUDING, BUT NOT LIMITED TO, THE IMPLIED WARRANTIES OF MERCHANTABILITY AND FITNESS F
      +                          OR
    68                           ; PURPOSE ARE DISCLAIMED.  IN NO EVENT SHALL MICROCHIP BE LIABLE FOR ANY DIRECT, INDIREC
      +                          T,
    69                           ; INCIDENTAL, SPECIAL, EXEMPLARY, OR CONSEQUENTIAL DAMAGES (INCLUDING BUT NOT LIMITED TO
    70                           ; PROCUREMENT OF SUBSTITUTE GOODS OR SERVICES; LOSS OF USE, DATA OR PROFITS; OR BUSINESS
    71                           ; INTERRUPTION) HOWSOEVER CAUSED AND ON ANY THEORY OF LIABILITY, WHETHER IN CONTRACT, ST
      +                          RICT
    72                           ; LIABILITY, OR TORT (INCLUDING NEGLIGENCE OR OTHERWISE) ARISING IN ANY WAY OUT OF THE U
      +                          SE OF
    73                           ; THIS SOFTWARE, EVEN IF ADVISED OF THE POSSIBILITY OF SUCH DAMAGE.
    74                           ; 
    75                           ; 
    76                           ; Code-generator required, PIC16F887 Definitions
    77                           ; 
    78                           ; SFR Addresses
    79  0000                     	;# 
    80  0001                     	;# 
    81  0002                     	;# 
    82  0003                     	;# 
    83  0004                     	;# 
    84  0005                     	;# 
    85  0006                     	;# 
    86  0007                     	;# 
    87  0008                     	;# 
    88  0009                     	;# 
    89  000A                     	;# 
    90  000B                     	;# 
    91  000C                     	;# 
    92  000D                     	;# 
    93  000E                     	;# 
    94  000E                     	;# 
    95  000F                     	;# 
    96  0010                     	;# 
    97  0011                     	;# 
    98  0012                     	;# 
    99  0013                     	;# 
   100  0014                     	;# 
   101  0015                     	;# 
   102  0015                     	;# 
   103  0016                     	;# 
   104  0017                     	;# 
   105  0018                     	;# 
   106  0019                     	;# 
   107  001A                     	;# 
   108  001B                     	;# 
   109  001B                     	;# 
   110  001C                     	;# 
   111  001D                     	;# 
   112  001E                     	;# 
   113  001F                     	;# 
   114  0081                     	;# 
   115  0085                     	;# 
   116  0086                     	;# 
   117  0087                     	;# 
   118  0088                     	;# 
   119  0089                     	;# 
   120  008C                     	;# 
   121  008D                     	;# 
   122  008E                     	;# 
   123  008F                     	;# 
   124  0090                     	;# 
   125  0091                     	;# 
   126  0092                     	;# 
   127  0093                     	;# 
   128  0093                     	;# 
   129  0093                     	;# 
   130  0094                     	;# 
   131  0095                     	;# 
   132  0096                     	;# 
   133  0097                     	;# 
   134  0098                     	;# 
   135  0099                     	;# 
   136  009A                     	;# 
   137  009B                     	;# 
   138  009C                     	;# 
   139  009D                     	;# 
   140  009E                     	;# 
   141  009F                     	;# 
   142  0105                     	;# 
   143  0107                     	;# 
   144  0108                     	;# 
   145  0109                     	;# 
   146  010C                     	;# 
   147  010C                     	;# 
   148  010D                     	;# 
   149  010E                     	;# 
   150  010F                     	;# 
   151  0185                     	;# 
   152  0187                     	;# 
   153  0188                     	;# 
   154  0189                     	;# 
   155  018C                     	;# 
   156  018D                     	;# 
   157  0000                     	;# 
   158  0001                     	;# 
   159  0002                     	;# 
   160  0003                     	;# 
   161  0004                     	;# 
   162  0005                     	;# 
   163  0006                     	;# 
   164  0007                     	;# 
   165  0008                     	;# 
   166  0009                     	;# 
   167  000A                     	;# 
   168  000B                     	;# 
   169  000C                     	;# 
   170  000D                     	;# 
   171  000E                     	;# 
   172  000E                     	;# 
   173  000F                     	;# 
   174  0010                     	;# 
   175  0011                     	;# 
   176  0012                     	;# 
   177  0013                     	;# 
   178  0014                     	;# 
   179  0015                     	;# 
   180  0015                     	;# 
   181  0016                     	;# 
   182  0017                     	;# 
   183  0018                     	;# 
   184  0019                     	;# 
   185  001A                     	;# 
   186  001B                     	;# 
   187  001B                     	;# 
   188  001C                     	;# 
   189  001D                     	;# 
   190  001E                     	;# 
   191  001F                     	;# 
   192  0081                     	;# 
   193  0085                     	;# 
   194  0086                     	;# 
   195  0087                     	;# 
   196  0088                     	;# 
   197  0089                     	;# 
   198  008C                     	;# 
   199  008D                     	;# 
   200  008E                     	;# 
   201  008F                     	;# 
   202  0090                     	;# 
   203  0091                     	;# 
   204  0092                     	;# 
   205  0093                     	;# 
   206  0093                     	;# 
   207  0093                     	;# 
   208  0094                     	;# 
   209  0095                     	;# 
   210  0096                     	;# 
   211  0097                     	;# 
   212  0098                     	;# 
   213  0099                     	;# 
   214  009A                     	;# 
   215  009B                     	;# 
   216  009C                     	;# 
   217  009D                     	;# 
   218  009E                     	;# 
   219  009F                     	;# 
   220  0105                     	;# 
   221  0107                     	;# 
   222  0108                     	;# 
   223  0109                     	;# 
   224  010C                     	;# 
   225  010C                     	;# 
   226  010D                     	;# 
   227  010E                     	;# 
   228  010F                     	;# 
   229  0185                     	;# 
   230  0187                     	;# 
   231  0188                     	;# 
   232  0189                     	;# 
   233  018C                     	;# 
   234  018D                     	;# 
   235  0000                     	;# 
   236  0001                     	;# 
   237  0002                     	;# 
   238  0003                     	;# 
   239  0004                     	;# 
   240  0005                     	;# 
   241  0006                     	;# 
   242  0007                     	;# 
   243  0008                     	;# 
   244  0009                     	;# 
   245  000A                     	;# 
   246  000B                     	;# 
   247  000C                     	;# 
   248  000D                     	;# 
   249  000E                     	;# 
   250  000E                     	;# 
   251  000F                     	;# 
   252  0010                     	;# 
   253  0011                     	;# 
   254  0012                     	;# 
   255  0013                     	;# 
   256  0014                     	;# 
   257  0015                     	;# 
   258  0015                     	;# 
   259  0016                     	;# 
   260  0017                     	;# 
   261  0018                     	;# 
   262  0019                     	;# 
   263  001A                     	;# 
   264  001B                     	;# 
   265  001B                     	;# 
   266  001C                     	;# 
   267  001D                     	;# 
   268  001E                     	;# 
   269  001F                     	;# 
   270  0081                     	;# 
   271  0085                     	;# 
   272  0086                     	;# 
   273  0087                     	;# 
   274  0088                     	;# 
   275  0089                     	;# 
   276  008C                     	;# 
   277  008D                     	;# 
   278  008E                     	;# 
   279  008F                     	;# 
   280  0090                     	;# 
   281  0091                     	;# 
   282  0092                     	;# 
   283  0093                     	;# 
   284  0093                     	;# 
   285  0093                     	;# 
   286  0094                     	;# 
   287  0095                     	;# 
   288  0096                     	;# 
   289  0097                     	;# 
   290  0098                     	;# 
   291  0099                     	;# 
   292  009A                     	;# 
   293  009B                     	;# 
   294  009C                     	;# 
   295  009D                     	;# 
   296  009E                     	;# 
   297  009F                     	;# 
   298  0105                     	;# 
   299  0107                     	;# 
   300  0108                     	;# 
   301  0109                     	;# 
   302  010C                     	;# 
   303  010C                     	;# 
   304  010D                     	;# 
   305  010E                     	;# 
   306  010F                     	;# 
   307  0185                     	;# 
   308  0187                     	;# 
   309  0188                     	;# 
   310  0189                     	;# 
   311  018C                     	;# 
   312  018D                     	;# 
   313  0000                     	;# 
   314  0001                     	;# 
   315  0002                     	;# 
   316  0003                     	;# 
   317  0004                     	;# 
   318  0005                     	;# 
   319  0006                     	;# 
   320  0007                     	;# 
   321  0008                     	;# 
   322  0009                     	;# 
   323  000A                     	;# 
   324  000B                     	;# 
   325  000C                     	;# 
   326  000D                     	;# 
   327  000E                     	;# 
   328  000E                     	;# 
   329  000F                     	;# 
   330  0010                     	;# 
   331  0011                     	;# 
   332  0012                     	;# 
   333  0013                     	;# 
   334  0014                     	;# 
   335  0015                     	;# 
   336  0015                     	;# 
   337  0016                     	;# 
   338  0017                     	;# 
   339  0018                     	;# 
   340  0019                     	;# 
   341  001A                     	;# 
   342  001B                     	;# 
   343  001B                     	;# 
   344  001C                     	;# 
   345  001D                     	;# 
   346  001E                     	;# 
   347  001F                     	;# 
   348  0081                     	;# 
   349  0085                     	;# 
   350  0086                     	;# 
   351  0087                     	;# 
   352  0088                     	;# 
   353  0089                     	;# 
   354  008C                     	;# 
   355  008D                     	;# 
   356  008E                     	;# 
   357  008F                     	;# 
   358  0090                     	;# 
   359  0091                     	;# 
   360  0092                     	;# 
   361  0093                     	;# 
   362  0093                     	;# 
   363  0093                     	;# 
   364  0094                     	;# 
   365  0095                     	;# 
   366  0096                     	;# 
   367  0097                     	;# 
   368  0098                     	;# 
   369  0099                     	;# 
   370  009A                     	;# 
   371  009B                     	;# 
   372  009C                     	;# 
   373  009D                     	;# 
   374  009E                     	;# 
   375  009F                     	;# 
   376  0105                     	;# 
   377  0107                     	;# 
   378  0108                     	;# 
   379  0109                     	;# 
   380  010C                     	;# 
   381  010C                     	;# 
   382  010D                     	;# 
   383  010E                     	;# 
   384  010F                     	;# 
   385  0185                     	;# 
   386  0187                     	;# 
   387  0188                     	;# 
   388  0189                     	;# 
   389  018C                     	;# 
   390  018D                     	;# 
   391                           
   392                           	psect	strings
   393  07B3                     __pstrings:
   394  07B3                     stringtab:
   395  07B3                     __stringtab:
   396  07B3                     stringcode:	
   397                           ;	String table - string pointers are 1 byte each
   398                           
   399  07B3                     stringdir:
   400  07B3  3007               	movlw	high stringdir
   401  07B4  008A               	movwf	10
   402  07B5  0804               	movf	4,w
   403  07B6  0A84               	incf	4,f
   404  07B7  0782               	addwf	2,f
   405  07B8                     __stringbase:
   406  07B8  3400               	retlw	0
   407  07B9                     __end_of__stringtab:
   408  07B9                     _dpowers:
   409  07B9  3401               	retlw	1
   410  07BA  3400               	retlw	0
   411  07BB  3400               	retlw	0
   412  07BC  3400               	retlw	0
   413  07BD  340A               	retlw	10
   414  07BE  3400               	retlw	0
   415  07BF  3400               	retlw	0
   416  07C0  3400               	retlw	0
   417  07C1  3464               	retlw	100
   418  07C2  3400               	retlw	0
   419  07C3  3400               	retlw	0
   420  07C4  3400               	retlw	0
   421  07C5  34E8               	retlw	232
   422  07C6  3403               	retlw	3
   423  07C7  3400               	retlw	0
   424  07C8  3400               	retlw	0
   425  07C9  3410               	retlw	16
   426  07CA  3427               	retlw	39
   427  07CB  3400               	retlw	0
   428  07CC  3400               	retlw	0
   429  07CD  34A0               	retlw	160
   430  07CE  3486               	retlw	134
   431  07CF  3401               	retlw	1
   432  07D0  3400               	retlw	0
   433  07D1  3440               	retlw	64
   434  07D2  3442               	retlw	66
   435  07D3  340F               	retlw	15
   436  07D4  3400               	retlw	0
   437  07D5  3480               	retlw	128
   438  07D6  3496               	retlw	150
   439  07D7  3498               	retlw	152
   440  07D8  3400               	retlw	0
   441  07D9  3400               	retlw	0
   442  07DA  34E1               	retlw	225
   443  07DB  34F5               	retlw	245
   444  07DC  3405               	retlw	5
   445  07DD  3400               	retlw	0
   446  07DE  34CA               	retlw	202
   447  07DF  349A               	retlw	154
   448  07E0  343B               	retlw	59
   449  07E1                     __end_of_dpowers:
   450  0019                     _TXREG	set	25
   451  0018                     _RCSTAbits	set	24
   452  0013                     _SSPBUF	set	19
   453  0014                     _SSPCON	set	20
   454  0005                     _PORTAbits	set	5
   455  0005                     _PORTA	set	5
   456  001A                     _RCREG	set	26
   457  000C                     _PIR1bits	set	12
   458  0063                     _SSPIF	set	99
   459  0098                     _TXSTAbits	set	152
   460  0099                     _SPBRG	set	153
   461  0087                     _TRISCbits	set	135
   462  0093                     _SSPADD	set	147
   463  0094                     _SSPSTAT	set	148
   464  0091                     _SSPCON2	set	145
   465  0091                     _SSPCON2bits	set	145
   466  0085                     _TRISAbits	set	133
   467  04A0                     _BF	set	1184
   468  048B                     _RCEN	set	1163
   469  048E                     _ACKSTAT	set	1166
   470  048C                     _ACKEN	set	1164
   471  048D                     _ACKDT	set	1165
   472  048A                     _PEN	set	1162
   473  0489                     _RSEN	set	1161
   474  0488                     _SEN	set	1160
   475  0189                     _ANSELH	set	393
   476  0188                     _ANSEL	set	392
   477  07E1                     STR_1:
   478  07E1  3425               	retlw	37	;'%'
   479  07E2  346C               	retlw	108	;'l'
   480  07E3  3475               	retlw	117	;'u'
   481  07E4  342E               	retlw	46	;'.'
   482  07E5  3425               	retlw	37	;'%'
   483  07E6  3436               	retlw	54	;'6'
   484  07E7  342E               	retlw	46	;'.'
   485  07E8  3436               	retlw	54	;'6'
   486  07E9  346C               	retlw	108	;'l'
   487  07EA  3475               	retlw	117	;'u'
   488  07EB  3400               	retlw	0
   489                           
   490                           	psect	cinit
   491  0011                     start_initialization:	
   492                           ; #config settings
   493                           
   494  0011                     __initialization:
   495                           
   496                           ; Clear objects allocated to BANK0
   497  0011  1383               	bcf	3,7	;select IRP bank0
   498  0012  3067               	movlw	low __pbssBANK0
   499  0013  0084               	movwf	4
   500  0014  3070               	movlw	low (__pbssBANK0+9)
   501  0015  120A  158A  2085  120A  118A  	fcall	clear_ram0
   502                           
   503                           ; Clear objects allocated to BANK1
   504  001A  30A0               	movlw	low __pbssBANK1
   505  001B  0084               	movwf	4
   506  001C  30B1               	movlw	low (__pbssBANK1+17)
   507  001D  120A  158A  2085  120A  118A  	fcall	clear_ram0
   508  0022                     end_of_initialization:	
   509                           ;End of C runtime variable initialization code
   510                           
   511  0022                     __end_of__initialization:
   512  0022  0183               	clrf	3
   513  0023  120A  118A  2EE4   	ljmp	_main	;jump to C main() function
   514                           
   515                           	psect	bssBANK0
   516  0067                     __pbssBANK0:
   517  0067                     _valor_arreglado:
   518  0067                     	ds	4
   519  006B                     _status:
   520  006B                     	ds	2
   521  006D                     _valor_original:
   522  006D                     	ds	2
   523  006F                     _buffer:
   524  006F                     	ds	1
   525                           
   526                           	psect	bssBANK1
   527  00A0                     __pbssBANK1:
   528  00A0                     ftoa@buf:
   529  00A0                     	ds	17
   530                           
   531                           	psect	clrtext
   532  0885                     clear_ram0:	
   533                           ;	Called with FSR containing the base address, and
   534                           ;	W with the last address+1
   535                           
   536  0885  0064               	clrwdt	;clear the watchdog before getting into this loop
   537  0886                     clrloop0:
   538  0886  0180               	clrf	0	;clear RAM location pointed to by FSR
   539  0887  0A84               	incf	4,f	;increment pointer
   540  0888  0604               	xorwf	4,w	;XOR with final address
   541  0889  1903               	btfsc	3,2	;have we reached the end yet?
   542  088A  3400               	retlw	0	;all done for this memory range, return
   543  088B  0604               	xorwf	4,w	;XOR again to restore value
   544  088C  2886               	goto	clrloop0	;do the next byte
   545                           
   546                           	psect	cstackCOMMON
   547  0070                     __pcstackCOMMON:
   548  0070                     ?_isdigit:
   549  0070                     ?_I2C_Master_Init:	
   550                           ; 1 bit 
   551                           
   552  0070                     ?_I2C_MPU_Init:	
   553                           ; 1 bytes @ 0x0
   554                           
   555  0070                     ?_I2C_Start:	
   556                           ; 1 bytes @ 0x0
   557                           
   558  0070                     ?_I2C_Master_Write:	
   559                           ; 1 bytes @ 0x0
   560                           
   561  0070                     ?_I2C_Master_RepeatedStart:	
   562                           ; 1 bytes @ 0x0
   563                           
   564  0070                     ?_I2C_Read:	
   565                           ; 1 bytes @ 0x0
   566                           
   567  0070                     ?_UARTSendChar:	
   568                           ; 1 bytes @ 0x0
   569                           
   570  0070                     ?_I2C_Master_Start:	
   571                           ; 1 bytes @ 0x0
   572                           
   573  0070                     ?_I2C_Master_Stop:	
   574                           ; 1 bytes @ 0x0
   575                           
   576  0070                     ?_isr:	
   577                           ; 1 bytes @ 0x0
   578                           
   579  0070                     ??_isr:	
   580                           ; 1 bytes @ 0x0
   581                           
   582  0070                     ?_main:	
   583                           ; 1 bytes @ 0x0
   584                           
   585  0070                     ?_I2C_Master_Wait:	
   586                           ; 1 bytes @ 0x0
   587                           
   588  0070                     ?_I2C_ACK:	
   589                           ; 1 bytes @ 0x0
   590                           
   591  0070                     ?_I2C_NACK:	
   592                           ; 1 bytes @ 0x0
   593                           
   594                           
   595                           ; 1 bytes @ 0x0
   596  0070                     	ds	5
   597  0075                     isr@opcionUART:
   598                           
   599                           ; 1 bytes @ 0x5
   600  0075                     	ds	1
   601  0076                     ??_I2C_Master_Init:
   602  0076                     ??_I2C_Master_Write:	
   603                           ; 1 bytes @ 0x6
   604                           
   605  0076                     ??_I2C_Master_RepeatedStart:	
   606                           ; 1 bytes @ 0x6
   607                           
   608  0076                     ??_I2C_Read:	
   609                           ; 1 bytes @ 0x6
   610                           
   611  0076                     ??_UARTSendChar:	
   612                           ; 1 bytes @ 0x6
   613                           
   614  0076                     ??_I2C_Master_Start:	
   615                           ; 1 bytes @ 0x6
   616                           
   617  0076                     ??_I2C_Master_Stop:	
   618                           ; 1 bytes @ 0x6
   619                           
   620  0076                     ??_isdigit:	
   621                           ; 1 bytes @ 0x6
   622                           
   623  0076                     ??_I2C_Master_Wait:	
   624                           ; 1 bytes @ 0x6
   625                           
   626  0076                     ??_I2C_ACK:	
   627                           ; 1 bytes @ 0x6
   628                           
   629  0076                     ??_I2C_NACK:	
   630                           ; 1 bytes @ 0x6
   631                           
   632  0076                     ??___wmul:	
   633                           ; 1 bytes @ 0x6
   634                           
   635  0076                     ??___lldiv:	
   636                           ; 1 bytes @ 0x6
   637                           
   638  0076                     ??___flneg:	
   639                           ; 1 bytes @ 0x6
   640                           
   641  0076                     ??___flsub:	
   642                           ; 1 bytes @ 0x6
   643                           
   644  0076                     ?__Umul8_16:	
   645                           ; 1 bytes @ 0x6
   646                           
   647  0076                     I2C_Master_Write@data:	
   648                           ; 2 bytes @ 0x6
   649                           
   650  0076                     UARTSendChar@c:	
   651                           ; 1 bytes @ 0x6
   652                           
   653  0076                     __Umul8_16@multiplicand:	
   654                           ; 1 bytes @ 0x6
   655                           
   656  0076                     _isdigit$912:	
   657                           ; 1 bytes @ 0x6
   658                           
   659  0076                     ___wmul@product:	
   660                           ; 1 bytes @ 0x6
   661                           
   662                           
   663                           ; 2 bytes @ 0x6
   664  0076                     	ds	1
   665  0077                     ??_I2C_MPU_Init:
   666  0077                     ??_I2C_Start:	
   667                           ; 1 bytes @ 0x7
   668                           
   669  0077                     ?_UARTSendString:	
   670                           ; 1 bytes @ 0x7
   671                           
   672  0077                     ??___llmod:	
   673                           ; 1 bytes @ 0x7
   674                           
   675  0077                     I2C_Start@add:	
   676                           ; 1 bytes @ 0x7
   677                           
   678  0077                     UARTSendString@max_length:	
   679                           ; 1 bytes @ 0x7
   680                           
   681  0077                     isdigit@c:	
   682                           ; 1 bytes @ 0x7
   683                           
   684                           
   685                           ; 1 bytes @ 0x7
   686  0077                     	ds	1
   687                           
   688                           	psect	cstackBANK0
   689  0020                     __pcstackBANK0:
   690  0020                     ?___flge:
   691  0020                     ??_UARTSendString:	
   692                           ; 1 bit 
   693                           
   694  0020                     ??__Umul8_16:	
   695                           ; 1 bytes @ 0x0
   696                           
   697  0020                     ?___wmul:	
   698                           ; 1 bytes @ 0x0
   699                           
   700  0020                     ?___lldiv:	
   701                           ; 2 bytes @ 0x0
   702                           
   703  0020                     ?___flneg:	
   704                           ; 4 bytes @ 0x0
   705                           
   706  0020                     ?___fladd:	
   707                           ; 4 bytes @ 0x0
   708                           
   709  0020                     ?___xxtofl:	
   710                           ; 4 bytes @ 0x0
   711                           
   712  0020                     I2C_Read@ACK_NACK:	
   713                           ; 4 bytes @ 0x0
   714                           
   715  0020                     ___wmul@multiplier:	
   716                           ; 1 bytes @ 0x0
   717                           
   718  0020                     ___lldiv@divisor:	
   719                           ; 2 bytes @ 0x0
   720                           
   721  0020                     ___flge@ff1:	
   722                           ; 4 bytes @ 0x0
   723                           
   724  0020                     ___flneg@f1:	
   725                           ; 4 bytes @ 0x0
   726                           
   727  0020                     ___fladd@b:	
   728                           ; 4 bytes @ 0x0
   729                           
   730  0020                     ___xxtofl@val:	
   731                           ; 4 bytes @ 0x0
   732                           
   733                           
   734                           ; 4 bytes @ 0x0
   735  0020                     	ds	1
   736  0021                     I2C_Read@Data:
   737  0021                     UARTSendString@str:	
   738                           ; 1 bytes @ 0x1
   739                           
   740                           
   741                           ; 1 bytes @ 0x1
   742  0021                     	ds	1
   743  0022                     UARTSendString@i:
   744  0022                     ___wmul@multiplicand:	
   745                           ; 2 bytes @ 0x2
   746                           
   747  0022                     __Umul8_16@product:	
   748                           ; 2 bytes @ 0x2
   749                           
   750                           
   751                           ; 2 bytes @ 0x2
   752  0022                     	ds	2
   753  0024                     ??___xxtofl:
   754  0024                     __Umul8_16@word_mpld:	
   755                           ; 1 bytes @ 0x4
   756                           
   757  0024                     ___lldiv@dividend:	
   758                           ; 2 bytes @ 0x4
   759                           
   760  0024                     ___flge@ff2:	
   761                           ; 4 bytes @ 0x4
   762                           
   763  0024                     ___fladd@a:	
   764                           ; 4 bytes @ 0x4
   765                           
   766                           
   767                           ; 4 bytes @ 0x4
   768  0024                     	ds	2
   769  0026                     __Umul8_16@multiplier:
   770                           
   771                           ; 1 bytes @ 0x6
   772  0026                     	ds	2
   773  0028                     ??___flge:
   774  0028                     ??___fladd:	
   775                           ; 1 bytes @ 0x8
   776                           
   777  0028                     ___xxtofl@sign:	
   778                           ; 1 bytes @ 0x8
   779                           
   780  0028                     ___lldiv@quotient:	
   781                           ; 1 bytes @ 0x8
   782                           
   783                           
   784                           ; 4 bytes @ 0x8
   785  0028                     	ds	1
   786  0029                     ___xxtofl@exp:
   787                           
   788                           ; 1 bytes @ 0x9
   789  0029                     	ds	1
   790  002A                     ___xxtofl@arg:
   791                           
   792                           ; 4 bytes @ 0xA
   793  002A                     	ds	2
   794  002C                     ___lldiv@counter:
   795                           
   796                           ; 1 bytes @ 0xC
   797  002C                     	ds	1
   798  002D                     ?_UARTInit:
   799  002D                     ?___llmod:	
   800                           ; 1 bytes @ 0xD
   801                           
   802  002D                     UARTInit@baud_rate:	
   803                           ; 4 bytes @ 0xD
   804                           
   805  002D                     ___llmod@divisor:	
   806                           ; 4 bytes @ 0xD
   807                           
   808                           
   809                           ; 4 bytes @ 0xD
   810  002D                     	ds	1
   811  002E                     ?___flmul:
   812  002E                     ___flmul@b:	
   813                           ; 4 bytes @ 0xE
   814                           
   815                           
   816                           ; 4 bytes @ 0xE
   817  002E                     	ds	2
   818  0030                     ___fladd@signs:
   819                           
   820                           ; 1 bytes @ 0x10
   821  0030                     	ds	1
   822  0031                     UARTInit@BRGH:
   823  0031                     ___fladd@aexp:	
   824                           ; 1 bytes @ 0x11
   825                           
   826  0031                     ___llmod@dividend:	
   827                           ; 1 bytes @ 0x11
   828                           
   829                           
   830                           ; 4 bytes @ 0x11
   831  0031                     	ds	1
   832  0032                     ??_UARTInit:
   833  0032                     ___fladd@bexp:	
   834                           ; 1 bytes @ 0x12
   835                           
   836  0032                     ___flmul@a:	
   837                           ; 1 bytes @ 0x12
   838                           
   839                           
   840                           ; 4 bytes @ 0x12
   841  0032                     	ds	1
   842  0033                     ___fladd@grs:
   843                           
   844                           ; 1 bytes @ 0x13
   845  0033                     	ds	1
   846  0034                     ?___flsub:
   847  0034                     ___flsub@a:	
   848                           ; 4 bytes @ 0x14
   849                           
   850                           
   851                           ; 4 bytes @ 0x14
   852  0034                     	ds	1
   853  0035                     ___llmod@counter:
   854                           
   855                           ; 1 bytes @ 0x15
   856  0035                     	ds	1
   857  0036                     ??___flmul:
   858  0036                     ?_sprintf:	
   859                           ; 1 bytes @ 0x16
   860                           
   861  0036                     sprintf@f:	
   862                           ; 2 bytes @ 0x16
   863                           
   864                           
   865                           ; 1 bytes @ 0x16
   866  0036                     	ds	2
   867  0038                     ___flsub@b:
   868                           
   869                           ; 4 bytes @ 0x18
   870  0038                     	ds	3
   871  003B                     ___flmul@sign:
   872                           
   873                           ; 1 bytes @ 0x1B
   874  003B                     	ds	1
   875  003C                     ___flmul@grs:
   876                           
   877                           ; 4 bytes @ 0x1C
   878  003C                     	ds	3
   879  003F                     ??_sprintf:
   880                           
   881                           ; 1 bytes @ 0x1F
   882  003F                     	ds	1
   883  0040                     ___flmul@aexp:
   884                           
   885                           ; 1 bytes @ 0x20
   886  0040                     	ds	1
   887  0041                     ___flmul@bexp:
   888                           
   889                           ; 1 bytes @ 0x21
   890  0041                     	ds	1
   891  0042                     ___flmul@prod:
   892                           
   893                           ; 4 bytes @ 0x22
   894  0042                     	ds	2
   895  0044                     sprintf@flag:
   896                           
   897                           ; 1 bytes @ 0x24
   898  0044                     	ds	1
   899  0045                     sprintf@ap:
   900                           
   901                           ; 1 bytes @ 0x25
   902  0045                     	ds	1
   903  0046                     ___flmul@temp:
   904  0046                     sprintf@val:	
   905                           ; 2 bytes @ 0x26
   906                           
   907                           
   908                           ; 4 bytes @ 0x26
   909  0046                     	ds	2
   910  0048                     ?___fltol:
   911  0048                     ___fltol@f1:	
   912                           ; 4 bytes @ 0x28
   913                           
   914                           
   915                           ; 4 bytes @ 0x28
   916  0048                     	ds	2
   917  004A                     sprintf@sp:
   918                           
   919                           ; 1 bytes @ 0x2A
   920  004A                     	ds	1
   921  004B                     sprintf@width:
   922                           
   923                           ; 2 bytes @ 0x2B
   924  004B                     	ds	1
   925  004C                     ??___fltol:
   926                           
   927                           ; 1 bytes @ 0x2C
   928  004C                     	ds	1
   929  004D                     sprintf@prec:
   930                           
   931                           ; 2 bytes @ 0x2D
   932  004D                     	ds	2
   933  004F                     sprintf@c:
   934                           
   935                           ; 1 bytes @ 0x2F
   936  004F                     	ds	2
   937  0051                     ___fltol@sign1:
   938                           
   939                           ; 1 bytes @ 0x31
   940  0051                     	ds	1
   941  0052                     ___fltol@exp1:
   942                           
   943                           ; 1 bytes @ 0x32
   944  0052                     	ds	1
   945  0053                     ?_ftoa:
   946  0053                     ftoa@f:	
   947                           ; 1 bytes @ 0x33
   948                           
   949                           
   950                           ; 4 bytes @ 0x33
   951  0053                     	ds	4
   952  0057                     ftoa@status:
   953                           
   954                           ; 2 bytes @ 0x37
   955  0057                     	ds	2
   956  0059                     ??_ftoa:
   957                           
   958                           ; 1 bytes @ 0x39
   959  0059                     	ds	1
   960  005A                     ftoa@rem:
   961                           
   962                           ; 4 bytes @ 0x3A
   963  005A                     	ds	4
   964  005E                     ftoa@l:
   965                           
   966                           ; 4 bytes @ 0x3E
   967  005E                     	ds	4
   968  0062                     ftoa@cp:
   969                           
   970                           ; 1 bytes @ 0x42
   971  0062                     	ds	1
   972  0063                     ??_main:
   973                           
   974                           ; 1 bytes @ 0x43
   975  0063                     	ds	4
   976                           
   977                           	psect	maintext
   978  06E4                     __pmaintext:	
   979 ;;
   980 ;;Main: autosize = 0, tempsize = 4, incstack = 0, save=0
   981 ;;
   982 ;; *************** function _main *****************
   983 ;; Defined at:
   984 ;;		line 76 in file "main.c"
   985 ;; Parameters:    Size  Location     Type
   986 ;;		None
   987 ;; Auto vars:     Size  Location     Type
   988 ;;		None
   989 ;; Return value:  Size  Location     Type
   990 ;;                  1    wreg      void 
   991 ;; Registers used:
   992 ;;		wreg, fsr0l, fsr0h, status,2, status,0, btemp+1, pclath, cstack
   993 ;; Tracked objects:
   994 ;;		On entry : B00/0
   995 ;;		On exit  : 0/0
   996 ;;		Unchanged: 0/0
   997 ;; Data sizes:     COMMON   BANK0   BANK1   BANK3   BANK2
   998 ;;      Params:         0       0       0       0       0
   999 ;;      Locals:         0       0       0       0       0
  1000 ;;      Temps:          0       4       0       0       0
  1001 ;;      Totals:         0       4       0       0       0
  1002 ;;Total ram usage:        4 bytes
  1003 ;; Hardware stack levels required when called:    4
  1004 ;; This function calls:
  1005 ;;		_I2C_MPU_Init
  1006 ;;		_I2C_Master_Init
  1007 ;;		_I2C_Master_RepeatedStart
  1008 ;;		_I2C_Master_Write
  1009 ;;		_I2C_Read
  1010 ;;		_I2C_Start
  1011 ;;		_UARTInit
  1012 ;;		_UARTSendChar
  1013 ;;		_UARTSendString
  1014 ;;		___flmul
  1015 ;;		___xxtofl
  1016 ;;		_ftoa
  1017 ;; This function is called by:
  1018 ;;		Startup code after reset
  1019 ;; This function uses a non-reentrant model
  1020 ;;
  1021                           
  1022                           
  1023                           ;psect for function _main
  1024  06E4                     _main:
  1025  06E4                     l2549:	
  1026                           ;incstack = 0
  1027                           ; Regs used in _main: [wreg-fsr0h+status,2+status,0+btemp+1+pclath+cstack]
  1028                           
  1029                           
  1030                           ;main.c: 77:     I2C_Master_Write(0x07);
  1031  06E4  3006               	movlw	6
  1032  06E5  1283               	bcf	3,5	;RP0=0, select bank0
  1033  06E6  1303               	bcf	3,6	;RP1=0, select bank0
  1034  06E7  00E5               	movwf	??_main+2
  1035  06E8  3013               	movlw	19
  1036  06E9  00E4               	movwf	??_main+1
  1037  06EA  30AD               	movlw	173
  1038  06EB  00E3               	movwf	??_main
  1039  06EC                     u3557:
  1040  06EC  0BE3               	decfsz	??_main,f
  1041  06ED  2EEC               	goto	u3557
  1042  06EE  0BE4               	decfsz	??_main+1,f
  1043  06EF  2EEC               	goto	u3557
  1044  06F0  0BE5               	decfsz	??_main+2,f
  1045  06F1  2EEC               	goto	u3557
  1046  06F2                     l2551:
  1047                           
  1048                           ;main.c: 79: 
  1049  06F2  1683               	bsf	3,5	;RP0=1, select bank3
  1050  06F3  1703               	bsf	3,6	;RP1=1, select bank3
  1051  06F4  0188               	clrf	8	;volatile
  1052  06F5                     l2553:
  1053                           
  1054                           ;main.c: 80:     I2C_Master_Start();
  1055  06F5  0189               	clrf	9	;volatile
  1056  06F6                     l2555:
  1057                           
  1058                           ;main.c: 82:     I2C_Master_Write(0x1A);
  1059  06F6  3000               	movlw	0
  1060  06F7  1283               	bcf	3,5	;RP0=0, select bank0
  1061  06F8  1303               	bcf	3,6	;RP1=0, select bank0
  1062  06F9  00B0               	movwf	UARTInit@baud_rate+3
  1063  06FA  3000               	movlw	0
  1064  06FB  00AF               	movwf	UARTInit@baud_rate+2
  1065  06FC  3025               	movlw	37
  1066  06FD  00AE               	movwf	UARTInit@baud_rate+1
  1067  06FE  3080               	movlw	128
  1068  06FF  00AD               	movwf	UARTInit@baud_rate
  1069  0700  01B1               	clrf	UARTInit@BRGH
  1070  0701  0AB1               	incf	UARTInit@BRGH,f
  1071  0702  120A  158A  22D8  120A  118A  	fcall	_UARTInit
  1072  0707                     l2557:
  1073                           
  1074                           ;main.c: 84:     I2C_Master_Stop();
  1075  0707  1683               	bsf	3,5	;RP0=1, select bank1
  1076  0708  1303               	bcf	3,6	;RP1=0, select bank1
  1077  0709  1005               	bcf	5,0	;volatile
  1078  070A                     l2559:
  1079                           
  1080                           ;main.c: 85: 
  1081  070A  1085               	bcf	5,1	;volatile
  1082  070B                     l2561:
  1083                           
  1084                           ;main.c: 87:     I2C_Master_Write(0xD0);
  1085  070B  1283               	bcf	3,5	;RP0=0, select bank0
  1086  070C  1303               	bcf	3,6	;RP1=0, select bank0
  1087  070D  1005               	bcf	5,0	;volatile
  1088  070E                     l2563:
  1089                           
  1090                           ;main.c: 88:     I2C_Master_Write(0x1B);
  1091  070E  1085               	bcf	5,1	;volatile
  1092  070F                     l2565:
  1093                           
  1094                           ;main.c: 90:     I2C_Master_Stop();
  1095  070F  120A  158A  20D3  120A  118A  	fcall	_I2C_Master_Init
  1096  0714                     l2567:
  1097                           
  1098                           ;main.c: 91: 
  1099  0714  120A  158A  23C7  120A  118A  	fcall	_I2C_MPU_Init
  1100  0719                     l2569:
  1101                           
  1102                           ;main.c: 94:     I2C_Master_Write(0x1C);
  1103  0719  30D0               	movlw	208
  1104  071A  120A  158A  20FD  120A  118A  	fcall	_I2C_Start
  1105  071F                     l68:	
  1106                           ;main.c: 95:     I2C_Master_Write(0x00);
  1107                           
  1108  071F  1683               	bsf	3,5	;RP0=1, select bank1
  1109  0720  1303               	bcf	3,6	;RP1=0, select bank1
  1110  0721  1B11               	btfsc	17,6	;volatile
  1111  0722  2F24               	goto	u3521
  1112  0723  2F25               	goto	u3520
  1113  0724                     u3521:
  1114  0724  2F1F               	goto	l68
  1115  0725                     u3520:
  1116  0725                     l2571:
  1117                           
  1118                           ;main.c: 96:     I2C_Master_Stop();
  1119  0725  303B               	movlw	59
  1120  0726  120A  158A  20ED  120A  118A  	fcall	_I2C_Master_Write
  1121  072B                     l71:	
  1122                           ;main.c: 97:     return;
  1123                           
  1124  072B  1683               	bsf	3,5	;RP0=1, select bank1
  1125  072C  1303               	bcf	3,6	;RP1=0, select bank1
  1126  072D  1B11               	btfsc	17,6	;volatile
  1127  072E  2F30               	goto	u3531
  1128  072F  2F31               	goto	u3530
  1129  0730                     u3531:
  1130  0730  2F2B               	goto	l71
  1131  0731                     u3530:
  1132  0731                     l2573:
  1133                           
  1134                           ;main.c: 98: }
  1135  0731  120A  158A  209F  120A  118A  	fcall	_I2C_Master_RepeatedStart
  1136  0736  30D1               	movlw	209
  1137  0737  120A  158A  20ED  120A  118A  	fcall	_I2C_Master_Write
  1138  073C                     l2575:
  1139  073C  3001               	movlw	1
  1140  073D  120A  158A  2181  120A  118A  	fcall	_I2C_Read
  1141  0742  1283               	bcf	3,5	;RP0=0, select bank0
  1142  0743  1303               	bcf	3,6	;RP1=0, select bank0
  1143  0744  00E3               	movwf	??_main
  1144  0745  01E4               	clrf	??_main+1
  1145  0746  3000               	movlw	0
  1146  0747  120A  158A  2181  120A  118A  	fcall	_I2C_Read
  1147  074C  1283               	bcf	3,5	;RP0=0, select bank0
  1148  074D  1303               	bcf	3,6	;RP1=0, select bank0
  1149  074E  00E5               	movwf	??_main+2
  1150  074F  01E6               	clrf	??_main+3
  1151  0750  0865               	movf	??_main+2,w
  1152  0751  00E6               	movwf	??_main+3
  1153  0752  01E5               	clrf	??_main+2
  1154  0753  0863               	movf	??_main,w
  1155  0754  0465               	iorwf	??_main+2,w
  1156  0755  00ED               	movwf	_valor_original
  1157  0756  0864               	movf	??_main+1,w
  1158  0757  0466               	iorwf	??_main+3,w
  1159  0758  00EE               	movwf	_valor_original+1
  1160  0759                     l2577:
  1161  0759  303A               	movlw	58
  1162  075A  00B1               	movwf	___flmul@b+3
  1163  075B  301C               	movlw	28
  1164  075C  00B0               	movwf	___flmul@b+2
  1165  075D  30D0               	movlw	208
  1166  075E  00AF               	movwf	___flmul@b+1
  1167  075F  3086               	movlw	134
  1168  0760  00AE               	movwf	___flmul@b
  1169  0761  086D               	movf	_valor_original,w
  1170  0762  00A0               	movwf	___xxtofl@val
  1171  0763  086E               	movf	_valor_original+1,w
  1172  0764  00A1               	movwf	___xxtofl@val+1
  1173  0765  3000               	movlw	0
  1174  0766  1BA1               	btfsc	___xxtofl@val+1,7
  1175  0767  30FF               	movlw	255
  1176  0768  00A2               	movwf	___xxtofl@val+2
  1177  0769  00A3               	movwf	___xxtofl@val+3
  1178  076A  3001               	movlw	1
  1179  076B  120A  158A  24F8  120A  118A  	fcall	___xxtofl
  1180  0770  1283               	bcf	3,5	;RP0=0, select bank0
  1181  0771  1303               	bcf	3,6	;RP1=0, select bank0
  1182  0772  0823               	movf	?___xxtofl+3,w
  1183  0773  00B5               	movwf	___flmul@a+3
  1184  0774  0822               	movf	?___xxtofl+2,w
  1185  0775  00B4               	movwf	___flmul@a+2
  1186  0776  0821               	movf	?___xxtofl+1,w
  1187  0777  00B3               	movwf	___flmul@a+1
  1188  0778  0820               	movf	?___xxtofl,w
  1189  0779  00B2               	movwf	___flmul@a
  1190  077A  120A  118A  2026  120A  118A  	fcall	___flmul
  1191  077F  1283               	bcf	3,5	;RP0=0, select bank0
  1192  0780  1303               	bcf	3,6	;RP1=0, select bank0
  1193  0781  0831               	movf	?___flmul+3,w
  1194  0782  00EA               	movwf	_valor_arreglado+3
  1195  0783  0830               	movf	?___flmul+2,w
  1196  0784  00E9               	movwf	_valor_arreglado+2
  1197  0785  082F               	movf	?___flmul+1,w
  1198  0786  00E8               	movwf	_valor_arreglado+1
  1199  0787  082E               	movf	?___flmul,w
  1200  0788  00E7               	movwf	_valor_arreglado
  1201  0789                     l2579:
  1202  0789  086A               	movf	_valor_arreglado+3,w
  1203  078A  00D6               	movwf	ftoa@f+3
  1204  078B  0869               	movf	_valor_arreglado+2,w
  1205  078C  00D5               	movwf	ftoa@f+2
  1206  078D  0868               	movf	_valor_arreglado+1,w
  1207  078E  00D4               	movwf	ftoa@f+1
  1208  078F  0867               	movf	_valor_arreglado,w
  1209  0790  00D3               	movwf	ftoa@f
  1210  0791  3000               	movlw	0
  1211  0792  00D7               	movwf	ftoa@status
  1212  0793  3000               	movlw	0
  1213  0794  00D8               	movwf	ftoa@status+1
  1214  0795  120A  118A  260F  120A  118A  	fcall	_ftoa
  1215  079A  1283               	bcf	3,5	;RP0=0, select bank0
  1216  079B  1303               	bcf	3,6	;RP1=0, select bank0
  1217  079C  00E3               	movwf	??_main
  1218  079D  0863               	movf	??_main,w
  1219  079E  00EF               	movwf	_buffer
  1220  079F                     l2581:
  1221  079F  3006               	movlw	6
  1222  07A0  00E3               	movwf	??_main
  1223  07A1  0863               	movf	??_main,w
  1224  07A2  00F7               	movwf	UARTSendString@max_length
  1225  07A3  086F               	movf	_buffer,w
  1226  07A4  120A  158A  21E4  120A  118A  	fcall	_UARTSendString
  1227  07A9                     l2583:
  1228  07A9  300A               	movlw	10
  1229  07AA  120A  158A  20BA  120A  118A  	fcall	_UARTSendChar
  1230  07AF  2F19               	goto	l2569
  1231  07B0  120A  118A  280E   	ljmp	start
  1232  07B3                     __end_of_main:
  1233                           
  1234                           	psect	text1
  1235  060F                     __ptext1:	
  1236 ;; *************** function _ftoa *****************
  1237 ;; Defined at:
  1238 ;;		line 6 in file "C:\Program Files\Microchip\xc8\v2.31\pic\sources\c90\common\ftoa.c"
  1239 ;; Parameters:    Size  Location     Type
  1240 ;;  f               4   51[BANK0 ] float 
  1241 ;;  status          2   55[BANK0 ] PTR int 
  1242 ;;		 -> NULL(0), RAM(512), 
  1243 ;; Auto vars:     Size  Location     Type
  1244 ;;  l               4   62[BANK0 ] unsigned long 
  1245 ;;  rem             4   58[BANK0 ] unsigned long 
  1246 ;;  cp              1   66[BANK0 ] PTR unsigned char 
  1247 ;;		 -> ftoa@buf(17), 
  1248 ;; Return value:  Size  Location     Type
  1249 ;;                  1    wreg      PTR unsigned char 
  1250 ;; Registers used:
  1251 ;;		wreg, fsr0l, fsr0h, status,2, status,0, btemp+1, pclath, cstack
  1252 ;; Tracked objects:
  1253 ;;		On entry : 0/0
  1254 ;;		On exit  : 0/0
  1255 ;;		Unchanged: 0/0
  1256 ;; Data sizes:     COMMON   BANK0   BANK1   BANK3   BANK2
  1257 ;;      Params:         0       6       0       0       0
  1258 ;;      Locals:         0       9       0       0       0
  1259 ;;      Temps:          0       1       0       0       0
  1260 ;;      Totals:         0      16       0       0       0
  1261 ;;Total ram usage:       16 bytes
  1262 ;; Hardware stack levels used:    1
  1263 ;; Hardware stack levels required when called:    3
  1264 ;; This function calls:
  1265 ;;		___flge
  1266 ;;		___flmul
  1267 ;;		___flneg
  1268 ;;		___flsub
  1269 ;;		___fltol
  1270 ;;		___xxtofl
  1271 ;;		_sprintf
  1272 ;; This function is called by:
  1273 ;;		_main
  1274 ;; This function uses a non-reentrant model
  1275 ;;
  1276                           
  1277                           
  1278                           ;psect for function _ftoa
  1279  060F                     _ftoa:
  1280  060F                     l2517:	
  1281                           ;incstack = 0
  1282                           ; Regs used in _ftoa: [wreg-fsr0h+status,2+status,0+btemp+1+pclath+cstack]
  1283                           
  1284  060F  30A0               	movlw	(low (ftoa@buf| 0))& (0+255)
  1285  0610  1283               	bcf	3,5	;RP0=0, select bank0
  1286  0611  1303               	bcf	3,6	;RP1=0, select bank0
  1287  0612  00D9               	movwf	??_ftoa
  1288  0613  0859               	movf	??_ftoa,w
  1289  0614  00E2               	movwf	ftoa@cp
  1290  0615                     l2519:
  1291  0615  0856               	movf	ftoa@f+3,w
  1292  0616  00A3               	movwf	___flge@ff1+3
  1293  0617  0855               	movf	ftoa@f+2,w
  1294  0618  00A2               	movwf	___flge@ff1+2
  1295  0619  0854               	movf	ftoa@f+1,w
  1296  061A  00A1               	movwf	___flge@ff1+1
  1297  061B  0853               	movf	ftoa@f,w
  1298  061C  00A0               	movwf	___flge@ff1
  1299  061D  3000               	movlw	0
  1300  061E  00A7               	movwf	___flge@ff2+3
  1301  061F  3000               	movlw	0
  1302  0620  00A6               	movwf	___flge@ff2+2
  1303  0621  3000               	movlw	0
  1304  0622  00A5               	movwf	___flge@ff2+1
  1305  0623  3000               	movlw	0
  1306  0624  00A4               	movwf	___flge@ff2
  1307  0625  120A  158A  2454  120A  118A  	fcall	___flge
  1308  062A  1803               	btfsc	3,0
  1309  062B  2E2D               	goto	u3491
  1310  062C  2E2E               	goto	u3490
  1311  062D                     u3491:
  1312  062D  2E52               	goto	l2527
  1313  062E                     u3490:
  1314  062E                     l2521:
  1315  062E  302D               	movlw	45
  1316  062F  1283               	bcf	3,5	;RP0=0, select bank0
  1317  0630  1303               	bcf	3,6	;RP1=0, select bank0
  1318  0631  00D9               	movwf	??_ftoa
  1319  0632  0862               	movf	ftoa@cp,w
  1320  0633  0084               	movwf	4
  1321  0634  0859               	movf	??_ftoa,w
  1322  0635  1383               	bcf	3,7	;select IRP bank0
  1323  0636  0080               	movwf	0
  1324  0637                     l2523:
  1325  0637  3001               	movlw	1
  1326  0638  00D9               	movwf	??_ftoa
  1327  0639  0859               	movf	??_ftoa,w
  1328  063A  07E2               	addwf	ftoa@cp,f
  1329  063B                     l2525:
  1330  063B  0856               	movf	ftoa@f+3,w
  1331  063C  00A3               	movwf	___flneg@f1+3
  1332  063D  0855               	movf	ftoa@f+2,w
  1333  063E  00A2               	movwf	___flneg@f1+2
  1334  063F  0854               	movf	ftoa@f+1,w
  1335  0640  00A1               	movwf	___flneg@f1+1
  1336  0641  0853               	movf	ftoa@f,w
  1337  0642  00A0               	movwf	___flneg@f1
  1338  0643  120A  158A  20E0  120A  118A  	fcall	___flneg
  1339  0648  1283               	bcf	3,5	;RP0=0, select bank0
  1340  0649  1303               	bcf	3,6	;RP1=0, select bank0
  1341  064A  0823               	movf	?___flneg+3,w
  1342  064B  00D6               	movwf	ftoa@f+3
  1343  064C  0822               	movf	?___flneg+2,w
  1344  064D  00D5               	movwf	ftoa@f+2
  1345  064E  0821               	movf	?___flneg+1,w
  1346  064F  00D4               	movwf	ftoa@f+1
  1347  0650  0820               	movf	?___flneg,w
  1348  0651  00D3               	movwf	ftoa@f
  1349  0652                     l2527:
  1350  0652  1283               	bcf	3,5	;RP0=0, select bank0
  1351  0653  1303               	bcf	3,6	;RP1=0, select bank0
  1352  0654  0856               	movf	ftoa@f+3,w
  1353  0655  00CB               	movwf	___fltol@f1+3
  1354  0656  0855               	movf	ftoa@f+2,w
  1355  0657  00CA               	movwf	___fltol@f1+2
  1356  0658  0854               	movf	ftoa@f+1,w
  1357  0659  00C9               	movwf	___fltol@f1+1
  1358  065A  0853               	movf	ftoa@f,w
  1359  065B  00C8               	movwf	___fltol@f1
  1360  065C  120A  158A  234B  120A  118A  	fcall	___fltol
  1361  0661  1283               	bcf	3,5	;RP0=0, select bank0
  1362  0662  1303               	bcf	3,6	;RP1=0, select bank0
  1363  0663  084B               	movf	?___fltol+3,w
  1364  0664  00E1               	movwf	ftoa@l+3
  1365  0665  084A               	movf	?___fltol+2,w
  1366  0666  00E0               	movwf	ftoa@l+2
  1367  0667  0849               	movf	?___fltol+1,w
  1368  0668  00DF               	movwf	ftoa@l+1
  1369  0669  0848               	movf	?___fltol,w
  1370  066A  00DE               	movwf	ftoa@l
  1371  066B                     l2529:
  1372  066B  0861               	movf	ftoa@l+3,w
  1373  066C  00A3               	movwf	___xxtofl@val+3
  1374  066D  0860               	movf	ftoa@l+2,w
  1375  066E  00A2               	movwf	___xxtofl@val+2
  1376  066F  085F               	movf	ftoa@l+1,w
  1377  0670  00A1               	movwf	___xxtofl@val+1
  1378  0671  085E               	movf	ftoa@l,w
  1379  0672  00A0               	movwf	___xxtofl@val
  1380  0673  3000               	movlw	0
  1381  0674  120A  158A  24F8  120A  118A  	fcall	___xxtofl
  1382  0679  1283               	bcf	3,5	;RP0=0, select bank0
  1383  067A  1303               	bcf	3,6	;RP1=0, select bank0
  1384  067B  0823               	movf	?___xxtofl+3,w
  1385  067C  00B7               	movwf	___flsub@a+3
  1386  067D  0822               	movf	?___xxtofl+2,w
  1387  067E  00B6               	movwf	___flsub@a+2
  1388  067F  0821               	movf	?___xxtofl+1,w
  1389  0680  00B5               	movwf	___flsub@a+1
  1390  0681  0820               	movf	?___xxtofl,w
  1391  0682  00B4               	movwf	___flsub@a
  1392  0683  0856               	movf	ftoa@f+3,w
  1393  0684  00BB               	movwf	___flsub@b+3
  1394  0685  0855               	movf	ftoa@f+2,w
  1395  0686  00BA               	movwf	___flsub@b+2
  1396  0687  0854               	movf	ftoa@f+1,w
  1397  0688  00B9               	movwf	___flsub@b+1
  1398  0689  0853               	movf	ftoa@f,w
  1399  068A  00B8               	movwf	___flsub@b
  1400  068B  120A  158A  210D  120A  118A  	fcall	___flsub
  1401  0690  1283               	bcf	3,5	;RP0=0, select bank0
  1402  0691  1303               	bcf	3,6	;RP1=0, select bank0
  1403  0692  0837               	movf	?___flsub+3,w
  1404  0693  00D6               	movwf	ftoa@f+3
  1405  0694  0836               	movf	?___flsub+2,w
  1406  0695  00D5               	movwf	ftoa@f+2
  1407  0696  0835               	movf	?___flsub+1,w
  1408  0697  00D4               	movwf	ftoa@f+1
  1409  0698  0834               	movf	?___flsub,w
  1410  0699  00D3               	movwf	ftoa@f
  1411  069A                     l2531:
  1412  069A  0856               	movf	ftoa@f+3,w
  1413  069B  00B5               	movwf	___flmul@a+3
  1414  069C  0855               	movf	ftoa@f+2,w
  1415  069D  00B4               	movwf	___flmul@a+2
  1416  069E  0854               	movf	ftoa@f+1,w
  1417  069F  00B3               	movwf	___flmul@a+1
  1418  06A0  0853               	movf	ftoa@f,w
  1419  06A1  00B2               	movwf	___flmul@a
  1420  06A2  3049               	movlw	73
  1421  06A3  00B1               	movwf	___flmul@b+3
  1422  06A4  3074               	movlw	116
  1423  06A5  00B0               	movwf	___flmul@b+2
  1424  06A6  3024               	movlw	36
  1425  06A7  00AF               	movwf	___flmul@b+1
  1426  06A8  3000               	movlw	0
  1427  06A9  00AE               	movwf	___flmul@b
  1428  06AA  120A  118A  2026  120A  118A  	fcall	___flmul
  1429  06AF  1283               	bcf	3,5	;RP0=0, select bank0
  1430  06B0  1303               	bcf	3,6	;RP1=0, select bank0
  1431  06B1  0831               	movf	?___flmul+3,w
  1432  06B2  00CB               	movwf	___fltol@f1+3
  1433  06B3  0830               	movf	?___flmul+2,w
  1434  06B4  00CA               	movwf	___fltol@f1+2
  1435  06B5  082F               	movf	?___flmul+1,w
  1436  06B6  00C9               	movwf	___fltol@f1+1
  1437  06B7  082E               	movf	?___flmul,w
  1438  06B8  00C8               	movwf	___fltol@f1
  1439  06B9  120A  158A  234B  120A  118A  	fcall	___fltol
  1440  06BE  1283               	bcf	3,5	;RP0=0, select bank0
  1441  06BF  1303               	bcf	3,6	;RP1=0, select bank0
  1442  06C0  084B               	movf	?___fltol+3,w
  1443  06C1  00DD               	movwf	ftoa@rem+3
  1444  06C2  084A               	movf	?___fltol+2,w
  1445  06C3  00DC               	movwf	ftoa@rem+2
  1446  06C4  0849               	movf	?___fltol+1,w
  1447  06C5  00DB               	movwf	ftoa@rem+1
  1448  06C6  0848               	movf	?___fltol,w
  1449  06C7  00DA               	movwf	ftoa@rem
  1450  06C8                     l2533:
  1451  06C8  3029               	movlw	(low ((STR_1-__stringbase)| (0+32768)))& (0+255)
  1452  06C9  00D9               	movwf	??_ftoa
  1453  06CA  0859               	movf	??_ftoa,w
  1454  06CB  00B6               	movwf	sprintf@f
  1455  06CC  0861               	movf	ftoa@l+3,w
  1456  06CD  00BA               	movwf	?_sprintf+4
  1457  06CE  0860               	movf	ftoa@l+2,w
  1458  06CF  00B9               	movwf	?_sprintf+3
  1459  06D0  085F               	movf	ftoa@l+1,w
  1460  06D1  00B8               	movwf	?_sprintf+2
  1461  06D2  085E               	movf	ftoa@l,w
  1462  06D3  00B7               	movwf	?_sprintf+1
  1463  06D4  085D               	movf	ftoa@rem+3,w
  1464  06D5  00BE               	movwf	?_sprintf+8
  1465  06D6  085C               	movf	ftoa@rem+2,w
  1466  06D7  00BD               	movwf	?_sprintf+7
  1467  06D8  085B               	movf	ftoa@rem+1,w
  1468  06D9  00BC               	movwf	?_sprintf+6
  1469  06DA  085A               	movf	ftoa@rem,w
  1470  06DB  00BB               	movwf	?_sprintf+5
  1471  06DC  0862               	movf	ftoa@cp,w
  1472  06DD  120A  158A  25B4  120A  118A  	fcall	_sprintf
  1473  06E2                     l2535:
  1474  06E2  30A0               	movlw	(low (ftoa@buf| 0))& (0+255)
  1475  06E3                     l760:
  1476  06E3  0008               	return
  1477  06E4                     __end_of_ftoa:
  1478                           
  1479                           	psect	text2
  1480  0DB4                     __ptext2:	
  1481 ;; *************** function _sprintf *****************
  1482 ;; Defined at:
  1483 ;;		line 505 in file "C:\Program Files\Microchip\xc8\v2.31\pic\sources\c90\common\doprnt.c"
  1484 ;; Parameters:    Size  Location     Type
  1485 ;;  sp              1    wreg     PTR unsigned char 
  1486 ;;		 -> ftoa@buf(17), 
  1487 ;;  f               1   22[BANK0 ] PTR const unsigned char 
  1488 ;;		 -> STR_1(11), 
  1489 ;; Auto vars:     Size  Location     Type
  1490 ;;  sp              1   42[BANK0 ] PTR unsigned char 
  1491 ;;		 -> ftoa@buf(17), 
  1492 ;;  val             4   38[BANK0 ] unsigned long 
  1493 ;;  tmpval          4    0        struct .
  1494 ;;  prec            2   45[BANK0 ] int 
  1495 ;;  width           2   43[BANK0 ] int 
  1496 ;;  cp              2    0        PTR const unsigned char 
  1497 ;;  len             2    0        unsigned int 
  1498 ;;  c               1   47[BANK0 ] unsigned char 
  1499 ;;  ap              1   37[BANK0 ] PTR void [1]
  1500 ;;		 -> ?_sprintf(2), 
  1501 ;;  flag            1   36[BANK0 ] unsigned char 
  1502 ;; Return value:  Size  Location     Type
  1503 ;;                  2   22[BANK0 ] int 
  1504 ;; Registers used:
  1505 ;;		wreg, fsr0l, fsr0h, status,2, status,0, pclath, cstack
  1506 ;; Tracked objects:
  1507 ;;		On entry : 0/0
  1508 ;;		On exit  : 0/0
  1509 ;;		Unchanged: 0/0
  1510 ;; Data sizes:     COMMON   BANK0   BANK1   BANK3   BANK2
  1511 ;;      Params:         0       9       0       0       0
  1512 ;;      Locals:         0      12       0       0       0
  1513 ;;      Temps:          0       5       0       0       0
  1514 ;;      Totals:         0      26       0       0       0
  1515 ;;Total ram usage:       26 bytes
  1516 ;; Hardware stack levels used:    1
  1517 ;; Hardware stack levels required when called:    2
  1518 ;; This function calls:
  1519 ;;		___lldiv
  1520 ;;		___llmod
  1521 ;;		___wmul
  1522 ;;		_isdigit
  1523 ;; This function is called by:
  1524 ;;		_ftoa
  1525 ;; This function uses a non-reentrant model
  1526 ;;
  1527                           
  1528                           
  1529                           ;psect for function _sprintf
  1530  0DB4                     _sprintf:
  1531                           
  1532                           ;incstack = 0
  1533                           ; Regs used in _sprintf: [wreg-fsr0h+status,2+status,0+pclath+cstack]
  1534                           ;sprintf@sp stored from wreg
  1535  0DB4  1283               	bcf	3,5	;RP0=0, select bank0
  1536  0DB5  1303               	bcf	3,6	;RP1=0, select bank0
  1537  0DB6  00CA               	movwf	sprintf@sp
  1538  0DB7                     l2341:
  1539                           
  1540                           ;C:\Program Files\Microchip\xc8\v2.31\pic\sources\c90\common\doprnt.c: 505: sprintf(char
      +                           * sp, const char * f, ...);C:\Program Files\Microchip\xc8\v2.31\pic\sources\c90\common\
      +                          doprnt.c: 506: {;C:\Program Files\Microchip\xc8\v2.31\pic\sources\c90\common\doprnt.c: 5
      +                          07:  va_list ap;;C:\Program Files\Microchip\xc8\v2.31\pic\sources\c90\common\doprnt.c: 5
      +                          12:  char c;;C:\Program Files\Microchip\xc8\v2.31\pic\sources\c90\common\doprnt.c: 514: 
      +                           int width;;C:\Program Files\Microchip\xc8\v2.31\pic\sources\c90\common\doprnt.c: 517:  
      +                          int prec;
  1541  0DB7  3037               	movlw	(low ((?_sprintf| 0+1)))& (0+255)
  1542  0DB8  00BF               	movwf	??_sprintf
  1543  0DB9  083F               	movf	??_sprintf,w
  1544  0DBA  00C5               	movwf	sprintf@ap
  1545                           
  1546                           ;C:\Program Files\Microchip\xc8\v2.31\pic\sources\c90\common\doprnt.c: 553:  while((c = 
      +                          *f++)) {
  1547  0DBB  2FE9               	goto	l2439
  1548  0DBC                     l2343:
  1549                           
  1550                           ;C:\Program Files\Microchip\xc8\v2.31\pic\sources\c90\common\doprnt.c: 555:   if(c != '%
      +                          ')
  1551  0DBC  3025               	movlw	37
  1552  0DBD  064F               	xorwf	sprintf@c,w
  1553  0DBE  1903               	btfsc	3,2
  1554  0DBF  2DC1               	goto	u3241
  1555  0DC0  2DC2               	goto	u3240
  1556  0DC1                     u3241:
  1557  0DC1  2DCE               	goto	l2349
  1558  0DC2                     u3240:
  1559  0DC2                     l2345:
  1560                           
  1561                           ;C:\Program Files\Microchip\xc8\v2.31\pic\sources\c90\common\doprnt.c: 557:   {;C:\Progr
      +                          am Files\Microchip\xc8\v2.31\pic\sources\c90\common\doprnt.c: 558:    ((*sp++ = (c)));
  1562  0DC2  084F               	movf	sprintf@c,w
  1563  0DC3  00BF               	movwf	??_sprintf
  1564  0DC4  084A               	movf	sprintf@sp,w
  1565  0DC5  0084               	movwf	4
  1566  0DC6  083F               	movf	??_sprintf,w
  1567  0DC7  1383               	bcf	3,7	;select IRP bank0
  1568  0DC8  0080               	movwf	0
  1569  0DC9                     l2347:
  1570  0DC9  3001               	movlw	1
  1571  0DCA  00BF               	movwf	??_sprintf
  1572  0DCB  083F               	movf	??_sprintf,w
  1573  0DCC  07CA               	addwf	sprintf@sp,f
  1574                           
  1575                           ;C:\Program Files\Microchip\xc8\v2.31\pic\sources\c90\common\doprnt.c: 559:    continue;
  1576  0DCD  2FE9               	goto	l2439
  1577  0DCE                     l2349:
  1578                           
  1579                           ;C:\Program Files\Microchip\xc8\v2.31\pic\sources\c90\common\doprnt.c: 563:   width = 0;
  1580  0DCE  01CB               	clrf	sprintf@width
  1581  0DCF  01CC               	clrf	sprintf@width+1
  1582                           
  1583                           ;C:\Program Files\Microchip\xc8\v2.31\pic\sources\c90\common\doprnt.c: 565:   flag = 0;
  1584  0DD0  01C4               	clrf	sprintf@flag
  1585  0DD1                     l2351:
  1586                           
  1587                           ;C:\Program Files\Microchip\xc8\v2.31\pic\sources\c90\common\doprnt.c: 614:   if(isdigit
      +                          ((unsigned)*f)) {
  1588  0DD1  0836               	movf	sprintf@f,w
  1589  0DD2  0084               	movwf	4
  1590  0DD3  120A  118A  27B3  120A  158A  	fcall	stringdir
  1591  0DD8  120A  118A  27EC  120A  158A  	fcall	_isdigit
  1592  0DDD  1C03               	btfss	3,0
  1593  0DDE  2DE0               	goto	u3251
  1594  0DDF  2DE1               	goto	u3250
  1595  0DE0                     u3251:
  1596  0DE0  2E21               	goto	l2363
  1597  0DE1                     u3250:
  1598  0DE1                     l2353:
  1599                           
  1600                           ;C:\Program Files\Microchip\xc8\v2.31\pic\sources\c90\common\doprnt.c: 615:    width = 0
      +                          ;
  1601  0DE1  1283               	bcf	3,5	;RP0=0, select bank0
  1602  0DE2  1303               	bcf	3,6	;RP1=0, select bank0
  1603  0DE3  01CB               	clrf	sprintf@width
  1604  0DE4  01CC               	clrf	sprintf@width+1
  1605  0DE5                     l2355:
  1606                           
  1607                           ;C:\Program Files\Microchip\xc8\v2.31\pic\sources\c90\common\doprnt.c: 617:     width *=
      +                           10;
  1608  0DE5  300A               	movlw	10
  1609  0DE6  1283               	bcf	3,5	;RP0=0, select bank0
  1610  0DE7  1303               	bcf	3,6	;RP1=0, select bank0
  1611  0DE8  00A0               	movwf	___wmul@multiplier
  1612  0DE9  3000               	movlw	0
  1613  0DEA  00A1               	movwf	___wmul@multiplier+1
  1614  0DEB  084C               	movf	sprintf@width+1,w
  1615  0DEC  00A3               	movwf	___wmul@multiplicand+1
  1616  0DED  084B               	movf	sprintf@width,w
  1617  0DEE  00A2               	movwf	___wmul@multiplicand
  1618  0DEF  120A  158A  2131  120A  158A  	fcall	___wmul
  1619  0DF4  1283               	bcf	3,5	;RP0=0, select bank0
  1620  0DF5  1303               	bcf	3,6	;RP1=0, select bank0
  1621  0DF6  0821               	movf	?___wmul+1,w
  1622  0DF7  00CC               	movwf	sprintf@width+1
  1623  0DF8  0820               	movf	?___wmul,w
  1624  0DF9  00CB               	movwf	sprintf@width
  1625  0DFA                     l2357:
  1626                           
  1627                           ;C:\Program Files\Microchip\xc8\v2.31\pic\sources\c90\common\doprnt.c: 618:        width
      +                           += *f++ - '0';
  1628  0DFA  0836               	movf	sprintf@f,w
  1629  0DFB  0084               	movwf	4
  1630  0DFC  120A  118A  27B3  120A  158A  	fcall	stringdir
  1631  0E01  3ED0               	addlw	208
  1632  0E02  00BF               	movwf	??_sprintf
  1633  0E03  30FF               	movlw	255
  1634  0E04  1803               	skipnc
  1635  0E05  3000               	movlw	0
  1636  0E06  00C0               	movwf	??_sprintf+1
  1637  0E07  083F               	movf	??_sprintf,w
  1638  0E08  07CB               	addwf	sprintf@width,f
  1639  0E09  1803               	skipnc
  1640  0E0A  0ACC               	incf	sprintf@width+1,f
  1641  0E0B  0840               	movf	??_sprintf+1,w
  1642  0E0C  07CC               	addwf	sprintf@width+1,f
  1643  0E0D                     l2359:
  1644  0E0D  3001               	movlw	1
  1645  0E0E  00BF               	movwf	??_sprintf
  1646  0E0F  083F               	movf	??_sprintf,w
  1647  0E10  07B6               	addwf	sprintf@f,f
  1648  0E11                     l2361:
  1649                           
  1650                           ;C:\Program Files\Microchip\xc8\v2.31\pic\sources\c90\common\doprnt.c: 619:    } while(i
      +                          sdigit((unsigned)*f));
  1651  0E11  0836               	movf	sprintf@f,w
  1652  0E12  0084               	movwf	4
  1653  0E13  120A  118A  27B3  120A  158A  	fcall	stringdir
  1654  0E18  120A  118A  27EC  120A  158A  	fcall	_isdigit
  1655  0E1D  1803               	btfsc	3,0
  1656  0E1E  2E20               	goto	u3261
  1657  0E1F  2E21               	goto	u3260
  1658  0E20                     u3261:
  1659  0E20  2DE5               	goto	l2355
  1660  0E21                     u3260:
  1661  0E21                     l2363:
  1662                           
  1663                           ;C:\Program Files\Microchip\xc8\v2.31\pic\sources\c90\common\doprnt.c: 628:   if(*f == '
      +                          .') {
  1664  0E21  1283               	bcf	3,5	;RP0=0, select bank0
  1665  0E22  1303               	bcf	3,6	;RP1=0, select bank0
  1666  0E23  0836               	movf	sprintf@f,w
  1667  0E24  0084               	movwf	4
  1668  0E25  120A  118A  27B3  120A  158A  	fcall	stringdir
  1669  0E2A  3A2E               	xorlw	46
  1670  0E2B  1D03               	skipz
  1671  0E2C  2E2E               	goto	u3271
  1672  0E2D  2E2F               	goto	u3270
  1673  0E2E                     u3271:
  1674  0E2E  2E73               	goto	l2377
  1675  0E2F                     u3270:
  1676  0E2F                     l2365:
  1677                           
  1678                           ;C:\Program Files\Microchip\xc8\v2.31\pic\sources\c90\common\doprnt.c: 630:    f++;
  1679  0E2F  3001               	movlw	1
  1680  0E30  00BF               	movwf	??_sprintf
  1681  0E31  083F               	movf	??_sprintf,w
  1682  0E32  07B6               	addwf	sprintf@f,f
  1683  0E33                     l2367:
  1684                           
  1685                           ;C:\Program Files\Microchip\xc8\v2.31\pic\sources\c90\common\doprnt.c: 644:    {;C:\Prog
      +                          ram Files\Microchip\xc8\v2.31\pic\sources\c90\common\doprnt.c: 645:     prec = 0;
  1686  0E33  01CD               	clrf	sprintf@prec
  1687  0E34  01CE               	clrf	sprintf@prec+1
  1688                           
  1689                           ;C:\Program Files\Microchip\xc8\v2.31\pic\sources\c90\common\doprnt.c: 646:     while(is
      +                          digit((unsigned)*f)) {
  1690  0E35  2E62               	goto	l2375
  1691  0E36                     l2369:
  1692                           
  1693                           ;C:\Program Files\Microchip\xc8\v2.31\pic\sources\c90\common\doprnt.c: 647:      prec *=
      +                           10;
  1694  0E36  300A               	movlw	10
  1695  0E37  1283               	bcf	3,5	;RP0=0, select bank0
  1696  0E38  1303               	bcf	3,6	;RP1=0, select bank0
  1697  0E39  00A0               	movwf	___wmul@multiplier
  1698  0E3A  3000               	movlw	0
  1699  0E3B  00A1               	movwf	___wmul@multiplier+1
  1700  0E3C  084E               	movf	sprintf@prec+1,w
  1701  0E3D  00A3               	movwf	___wmul@multiplicand+1
  1702  0E3E  084D               	movf	sprintf@prec,w
  1703  0E3F  00A2               	movwf	___wmul@multiplicand
  1704  0E40  120A  158A  2131  120A  158A  	fcall	___wmul
  1705  0E45  1283               	bcf	3,5	;RP0=0, select bank0
  1706  0E46  1303               	bcf	3,6	;RP1=0, select bank0
  1707  0E47  0821               	movf	?___wmul+1,w
  1708  0E48  00CE               	movwf	sprintf@prec+1
  1709  0E49  0820               	movf	?___wmul,w
  1710  0E4A  00CD               	movwf	sprintf@prec
  1711  0E4B                     l2371:
  1712                           
  1713                           ;C:\Program Files\Microchip\xc8\v2.31\pic\sources\c90\common\doprnt.c: 648:         prec
      +                           += *f++ - '0';
  1714  0E4B  0836               	movf	sprintf@f,w
  1715  0E4C  0084               	movwf	4
  1716  0E4D  120A  118A  27B3  120A  158A  	fcall	stringdir
  1717  0E52  3ED0               	addlw	208
  1718  0E53  00BF               	movwf	??_sprintf
  1719  0E54  30FF               	movlw	255
  1720  0E55  1803               	skipnc
  1721  0E56  3000               	movlw	0
  1722  0E57  00C0               	movwf	??_sprintf+1
  1723  0E58  083F               	movf	??_sprintf,w
  1724  0E59  07CD               	addwf	sprintf@prec,f
  1725  0E5A  1803               	skipnc
  1726  0E5B  0ACE               	incf	sprintf@prec+1,f
  1727  0E5C  0840               	movf	??_sprintf+1,w
  1728  0E5D  07CE               	addwf	sprintf@prec+1,f
  1729  0E5E                     l2373:
  1730  0E5E  3001               	movlw	1
  1731  0E5F  00BF               	movwf	??_sprintf
  1732  0E60  083F               	movf	??_sprintf,w
  1733  0E61  07B6               	addwf	sprintf@f,f
  1734  0E62                     l2375:
  1735                           
  1736                           ;C:\Program Files\Microchip\xc8\v2.31\pic\sources\c90\common\doprnt.c: 646:     while(is
      +                          digit((unsigned)*f)) {
  1737  0E62  0836               	movf	sprintf@f,w
  1738  0E63  0084               	movwf	4
  1739  0E64  120A  118A  27B3  120A  158A  	fcall	stringdir
  1740  0E69  120A  118A  27EC  120A  158A  	fcall	_isdigit
  1741  0E6E  1803               	btfsc	3,0
  1742  0E6F  2E71               	goto	u3281
  1743  0E70  2E72               	goto	u3280
  1744  0E71                     u3281:
  1745  0E71  2E36               	goto	l2369
  1746  0E72                     u3280:
  1747  0E72  2E7D               	goto	l2383
  1748  0E73                     l2377:
  1749                           
  1750                           ;C:\Program Files\Microchip\xc8\v2.31\pic\sources\c90\common\doprnt.c: 652:    prec = 0;
  1751  0E73  01CD               	clrf	sprintf@prec
  1752  0E74  01CE               	clrf	sprintf@prec+1
  1753  0E75  2E7D               	goto	l2383
  1754  0E76                     l786:	
  1755                           ;C:\Program Files\Microchip\xc8\v2.31\pic\sources\c90\common\doprnt.c: 667:   case 'l':
  1756                           
  1757                           
  1758                           ;C:\Program Files\Microchip\xc8\v2.31\pic\sources\c90\common\doprnt.c: 669:    flag |= 0
      +                          x10;
  1759  0E76  1644               	bsf	sprintf@flag,4
  1760                           
  1761                           ;C:\Program Files\Microchip\xc8\v2.31\pic\sources\c90\common\doprnt.c: 670:    goto loop
      +                          ;
  1762  0E77  2E7D               	goto	l2383
  1763  0E78                     l2379:
  1764                           
  1765                           ;C:\Program Files\Microchip\xc8\v2.31\pic\sources\c90\common\doprnt.c: 844:    flag |= 0
      +                          xC0;
  1766  0E78  30C0               	movlw	192
  1767  0E79  00BF               	movwf	??_sprintf
  1768  0E7A  083F               	movf	??_sprintf,w
  1769  0E7B  04C4               	iorwf	sprintf@flag,f
  1770                           
  1771                           ;C:\Program Files\Microchip\xc8\v2.31\pic\sources\c90\common\doprnt.c: 845:    break;
  1772  0E7C  2E9C               	goto	l789
  1773  0E7D                     l2383:
  1774  0E7D  3001               	movlw	1
  1775  0E7E  1283               	bcf	3,5	;RP0=0, select bank0
  1776  0E7F  1303               	bcf	3,6	;RP1=0, select bank0
  1777  0E80  07B6               	addwf	sprintf@f,f
  1778  0E81  30FF               	movlw	-1
  1779  0E82  0736               	addwf	sprintf@f,w
  1780  0E83  0084               	movwf	4
  1781  0E84  120A  118A  27B3  120A  158A  	fcall	stringdir
  1782  0E89  00CF               	movwf	sprintf@c
  1783  0E8A  00BF               	movwf	??_sprintf
  1784  0E8B  01C0               	clrf	??_sprintf+1
  1785                           
  1786                           ; Switch on 2 bytes has been partitioned into a top level switch of size 1, and 1 sub-sw
      +                          itches
  1787                           ; Switch size 1, requested type "simple"
  1788                           ; Number of cases is 1, Range of values is 0 to 0
  1789                           ; switch strategies available:
  1790                           ; Name         Instructions Cycles
  1791                           ; simple_byte            4     3 (average)
  1792                           ; direct_byte           11     8 (fixed)
  1793                           ; jumptable            260     6 (fixed)
  1794                           ;	Chosen strategy is simple_byte
  1795  0E8C  0840               	movf	??_sprintf+1,w
  1796  0E8D  3A00               	xorlw	0	; case 0
  1797  0E8E  1903               	skipnz
  1798  0E8F  2E91               	goto	l2635
  1799  0E90  2FE9               	goto	l2439
  1800  0E91                     l2635:
  1801                           
  1802                           ; Switch size 1, requested type "simple"
  1803                           ; Number of cases is 3, Range of values is 0 to 117
  1804                           ; switch strategies available:
  1805                           ; Name         Instructions Cycles
  1806                           ; simple_byte           10     6 (average)
  1807                           ; jumptable            260     6 (fixed)
  1808                           ;	Chosen strategy is simple_byte
  1809  0E91  083F               	movf	??_sprintf,w
  1810  0E92  3A00               	xorlw	0	; case 0
  1811  0E93  1903               	skipnz
  1812  0E94  2FFB               	goto	l2441
  1813  0E95  3A6C               	xorlw	108	; case 108
  1814  0E96  1903               	skipnz
  1815  0E97  2E76               	goto	l786
  1816  0E98  3A19               	xorlw	25	; case 117
  1817  0E99  1903               	skipnz
  1818  0E9A  2E78               	goto	l2379
  1819  0E9B  2FE9               	goto	l2439
  1820  0E9C                     l789:
  1821                           
  1822                           ;C:\Program Files\Microchip\xc8\v2.31\pic\sources\c90\common\doprnt.c: 1299:   {;C:\Prog
      +                          ram Files\Microchip\xc8\v2.31\pic\sources\c90\common\doprnt.c: 1307:     if(flag & 0x10)
  1823  0E9C  1E44               	btfss	sprintf@flag,4
  1824  0E9D  2E9F               	goto	u3291
  1825  0E9E  2EA0               	goto	u3290
  1826  0E9F                     u3291:
  1827  0E9F  2EB3               	goto	l2389
  1828  0EA0                     u3290:
  1829  0EA0                     l2385:
  1830                           
  1831                           ;C:\Program Files\Microchip\xc8\v2.31\pic\sources\c90\common\doprnt.c: 1308:     val = (
      +                          *(unsigned long *)__va_arg((*(unsigned long **)ap), (unsigned long)0));
  1832  0EA0  0845               	movf	sprintf@ap,w
  1833  0EA1  0084               	movwf	4
  1834  0EA2  1383               	bcf	3,7	;select IRP bank0
  1835  0EA3  0800               	movf	0,w
  1836  0EA4  00C6               	movwf	sprintf@val
  1837  0EA5  0A84               	incf	4,f
  1838  0EA6  0800               	movf	0,w
  1839  0EA7  00C7               	movwf	sprintf@val+1
  1840  0EA8  0A84               	incf	4,f
  1841  0EA9  0800               	movf	0,w
  1842  0EAA  00C8               	movwf	sprintf@val+2
  1843  0EAB  0A84               	incf	4,f
  1844  0EAC  0800               	movf	0,w
  1845  0EAD  00C9               	movwf	sprintf@val+3
  1846  0EAE                     l2387:
  1847  0EAE  3004               	movlw	4
  1848  0EAF  00BF               	movwf	??_sprintf
  1849  0EB0  083F               	movf	??_sprintf,w
  1850  0EB1  07C5               	addwf	sprintf@ap,f
  1851  0EB2  2EC5               	goto	l2393
  1852  0EB3                     l2389:
  1853                           
  1854                           ;C:\Program Files\Microchip\xc8\v2.31\pic\sources\c90\common\doprnt.c: 1312:     val = (
      +                          *(unsigned *)__va_arg((*(unsigned **)ap), (unsigned)0));
  1855  0EB3  0845               	movf	sprintf@ap,w
  1856  0EB4  0084               	movwf	4
  1857  0EB5  1383               	bcf	3,7	;select IRP bank0
  1858  0EB6  0800               	movf	0,w
  1859  0EB7  00BF               	movwf	??_sprintf
  1860  0EB8  0A84               	incf	4,f
  1861  0EB9  0800               	movf	0,w
  1862  0EBA  00C0               	movwf	??_sprintf+1
  1863  0EBB  083F               	movf	??_sprintf,w
  1864  0EBC  00C6               	movwf	sprintf@val
  1865  0EBD  0840               	movf	??_sprintf+1,w
  1866  0EBE  00C7               	movwf	sprintf@val+1
  1867  0EBF  01C8               	clrf	sprintf@val+2
  1868  0EC0  01C9               	clrf	sprintf@val+3
  1869  0EC1                     l2391:
  1870  0EC1  3002               	movlw	2
  1871  0EC2  00BF               	movwf	??_sprintf
  1872  0EC3  083F               	movf	??_sprintf,w
  1873  0EC4  07C5               	addwf	sprintf@ap,f
  1874  0EC5                     l2393:
  1875                           
  1876                           ;C:\Program Files\Microchip\xc8\v2.31\pic\sources\c90\common\doprnt.c: 1313:   };C:\Prog
      +                          ram Files\Microchip\xc8\v2.31\pic\sources\c90\common\doprnt.c: 1316:   if(prec == 0 && v
      +                          al == 0)
  1877  0EC5  084D               	movf	sprintf@prec,w
  1878  0EC6  044E               	iorwf	sprintf@prec+1,w
  1879  0EC7  1D03               	btfss	3,2
  1880  0EC8  2ECA               	goto	u3301
  1881  0EC9  2ECB               	goto	u3300
  1882  0ECA                     u3301:
  1883  0ECA  2ED9               	goto	l2399
  1884  0ECB                     u3300:
  1885  0ECB                     l2395:
  1886  0ECB  0849               	movf	sprintf@val+3,w
  1887  0ECC  0448               	iorwf	sprintf@val+2,w
  1888  0ECD  0447               	iorwf	sprintf@val+1,w
  1889  0ECE  0446               	iorwf	sprintf@val,w
  1890  0ECF  1D03               	skipz
  1891  0ED0  2ED2               	goto	u3311
  1892  0ED1  2ED3               	goto	u3310
  1893  0ED2                     u3311:
  1894  0ED2  2ED9               	goto	l2399
  1895  0ED3                     u3310:
  1896  0ED3                     l2397:
  1897                           
  1898                           ;C:\Program Files\Microchip\xc8\v2.31\pic\sources\c90\common\doprnt.c: 1317:    prec++;
  1899  0ED3  3001               	movlw	1
  1900  0ED4  07CD               	addwf	sprintf@prec,f
  1901  0ED5  1803               	skipnc
  1902  0ED6  0ACE               	incf	sprintf@prec+1,f
  1903  0ED7  3000               	movlw	0
  1904  0ED8  07CE               	addwf	sprintf@prec+1,f
  1905  0ED9                     l2399:
  1906                           
  1907                           ;C:\Program Files\Microchip\xc8\v2.31\pic\sources\c90\common\doprnt.c: 1331:    for(c = 
      +                          1 ; c != sizeof dpowers/sizeof dpowers[0] ; c++)
  1908  0ED9  01CF               	clrf	sprintf@c
  1909  0EDA  0ACF               	incf	sprintf@c,f
  1910  0EDB                     l2405:
  1911                           
  1912                           ;C:\Program Files\Microchip\xc8\v2.31\pic\sources\c90\common\doprnt.c: 1332:     if(val 
      +                          < dpowers[c])
  1913  0EDB  084F               	movf	sprintf@c,w
  1914  0EDC  00BF               	movwf	??_sprintf
  1915  0EDD  3001               	movlw	1
  1916  0EDE                     u3325:
  1917  0EDE  1003               	clrc
  1918  0EDF  0DBF               	rlf	??_sprintf,f
  1919  0EE0  3EFF               	addlw	-1
  1920  0EE1  1D03               	skipz
  1921  0EE2  2EDE               	goto	u3325
  1922  0EE3  1003               	clrc
  1923  0EE4  0D3F               	rlf	??_sprintf,w
  1924  0EE5  3E01               	addlw	low ((_dpowers-__stringbase)| (0+32768))
  1925  0EE6  0084               	movwf	4
  1926  0EE7  120A  118A  27B3  120A  158A  	fcall	stringdir
  1927  0EEC  00C0               	movwf	??_sprintf+1
  1928  0EED  120A  118A  27B3  120A  158A  	fcall	stringdir
  1929  0EF2  00C1               	movwf	??_sprintf+2
  1930  0EF3  120A  118A  27B3  120A  158A  	fcall	stringdir
  1931  0EF8  00C2               	movwf	??_sprintf+3
  1932  0EF9  120A  118A  27B3  120A  158A  	fcall	stringdir
  1933  0EFE  00C3               	movwf	??_sprintf+4
  1934  0EFF  0843               	movf	??_sprintf+4,w
  1935  0F00  0249               	subwf	sprintf@val+3,w
  1936  0F01  1D03               	skipz
  1937  0F02  2F0D               	goto	u3335
  1938  0F03  0842               	movf	??_sprintf+3,w
  1939  0F04  0248               	subwf	sprintf@val+2,w
  1940  0F05  1D03               	skipz
  1941  0F06  2F0D               	goto	u3335
  1942  0F07  0841               	movf	??_sprintf+2,w
  1943  0F08  0247               	subwf	sprintf@val+1,w
  1944  0F09  1D03               	skipz
  1945  0F0A  2F0D               	goto	u3335
  1946  0F0B  0840               	movf	??_sprintf+1,w
  1947  0F0C  0246               	subwf	sprintf@val,w
  1948  0F0D                     u3335:
  1949  0F0D  1803               	skipnc
  1950  0F0E  2F10               	goto	u3331
  1951  0F0F  2F11               	goto	u3330
  1952  0F10                     u3331:
  1953  0F10  2F12               	goto	l2409
  1954  0F11                     u3330:
  1955  0F11  2F1C               	goto	l2411
  1956  0F12                     l2409:
  1957  0F12  3001               	movlw	1
  1958  0F13  00BF               	movwf	??_sprintf
  1959  0F14  083F               	movf	??_sprintf,w
  1960  0F15  07CF               	addwf	sprintf@c,f
  1961  0F16  300A               	movlw	10
  1962  0F17  064F               	xorwf	sprintf@c,w
  1963  0F18  1D03               	btfss	3,2
  1964  0F19  2F1B               	goto	u3341
  1965  0F1A  2F1C               	goto	u3340
  1966  0F1B                     u3341:
  1967  0F1B  2EDB               	goto	l2405
  1968  0F1C                     u3340:
  1969  0F1C                     l2411:
  1970                           
  1971                           ;C:\Program Files\Microchip\xc8\v2.31\pic\sources\c90\common\doprnt.c: 1365:   if(c < pr
      +                          ec)
  1972  0F1C  084E               	movf	sprintf@prec+1,w
  1973  0F1D  3A80               	xorlw	128
  1974  0F1E  3C80               	sublw	128
  1975  0F1F  1D03               	skipz
  1976  0F20  2F23               	goto	u3355
  1977  0F21  084D               	movf	sprintf@prec,w
  1978  0F22  024F               	subwf	sprintf@c,w
  1979  0F23                     u3355:
  1980  0F23  1803               	skipnc
  1981  0F24  2F26               	goto	u3351
  1982  0F25  2F27               	goto	u3350
  1983  0F26                     u3351:
  1984  0F26  2F2E               	goto	l2415
  1985  0F27                     u3350:
  1986  0F27                     l2413:
  1987                           
  1988                           ;C:\Program Files\Microchip\xc8\v2.31\pic\sources\c90\common\doprnt.c: 1366:    c = (cha
      +                          r)prec;
  1989  0F27  1283               	bcf	3,5	;RP0=0, select bank0
  1990  0F28  1303               	bcf	3,6	;RP1=0, select bank0
  1991  0F29  084D               	movf	sprintf@prec,w
  1992  0F2A  00BF               	movwf	??_sprintf
  1993  0F2B  083F               	movf	??_sprintf,w
  1994  0F2C  00CF               	movwf	sprintf@c
  1995  0F2D  2F46               	goto	l797
  1996  0F2E                     l2415:
  1997  0F2E  1283               	bcf	3,5	;RP0=0, select bank0
  1998  0F2F  1303               	bcf	3,6	;RP1=0, select bank0
  1999  0F30  084E               	movf	sprintf@prec+1,w
  2000  0F31  3A80               	xorlw	128
  2001  0F32  00BF               	movwf	??_sprintf
  2002  0F33  3080               	movlw	128
  2003  0F34  023F               	subwf	??_sprintf,w
  2004  0F35  1D03               	skipz
  2005  0F36  2F39               	goto	u3365
  2006  0F37  084F               	movf	sprintf@c,w
  2007  0F38  024D               	subwf	sprintf@prec,w
  2008  0F39                     u3365:
  2009  0F39  1803               	skipnc
  2010  0F3A  2F3C               	goto	u3361
  2011  0F3B  2F3D               	goto	u3360
  2012  0F3C                     u3361:
  2013  0F3C  2F46               	goto	l797
  2014  0F3D                     u3360:
  2015  0F3D                     l2417:
  2016                           
  2017                           ;C:\Program Files\Microchip\xc8\v2.31\pic\sources\c90\common\doprnt.c: 1368:    prec = c
      +                          ;
  2018  0F3D  1283               	bcf	3,5	;RP0=0, select bank0
  2019  0F3E  1303               	bcf	3,6	;RP1=0, select bank0
  2020  0F3F  084F               	movf	sprintf@c,w
  2021  0F40  00BF               	movwf	??_sprintf
  2022  0F41  01C0               	clrf	??_sprintf+1
  2023  0F42  083F               	movf	??_sprintf,w
  2024  0F43  00CD               	movwf	sprintf@prec
  2025  0F44  0840               	movf	??_sprintf+1,w
  2026  0F45  00CE               	movwf	sprintf@prec+1
  2027  0F46                     l797:
  2028                           
  2029                           ;C:\Program Files\Microchip\xc8\v2.31\pic\sources\c90\common\doprnt.c: 1407:   if(width 
      +                          > c)
  2030  0F46  1283               	bcf	3,5	;RP0=0, select bank0
  2031  0F47  1303               	bcf	3,6	;RP1=0, select bank0
  2032  0F48  084C               	movf	sprintf@width+1,w
  2033  0F49  3A80               	xorlw	128
  2034  0F4A  3C80               	sublw	128
  2035  0F4B  1D03               	skipz
  2036  0F4C  2F4F               	goto	u3375
  2037  0F4D  084B               	movf	sprintf@width,w
  2038  0F4E  024F               	subwf	sprintf@c,w
  2039  0F4F                     u3375:
  2040  0F4F  1803               	skipnc
  2041  0F50  2F52               	goto	u3371
  2042  0F51  2F53               	goto	u3370
  2043  0F52                     u3371:
  2044  0F52  2F5F               	goto	l2421
  2045  0F53                     u3370:
  2046  0F53                     l2419:
  2047                           
  2048                           ;C:\Program Files\Microchip\xc8\v2.31\pic\sources\c90\common\doprnt.c: 1408:    width -=
      +                           c;
  2049  0F53  1283               	bcf	3,5	;RP0=0, select bank0
  2050  0F54  1303               	bcf	3,6	;RP1=0, select bank0
  2051  0F55  084F               	movf	sprintf@c,w
  2052  0F56  00BF               	movwf	??_sprintf
  2053  0F57  01C0               	clrf	??_sprintf+1
  2054  0F58  083F               	movf	??_sprintf,w
  2055  0F59  02CB               	subwf	sprintf@width,f
  2056  0F5A  0840               	movf	??_sprintf+1,w
  2057  0F5B  1C03               	skipc
  2058  0F5C  03CC               	decf	sprintf@width+1,f
  2059  0F5D  02CC               	subwf	sprintf@width+1,f
  2060  0F5E  2F63               	goto	l2423
  2061  0F5F                     l2421:
  2062                           
  2063                           ;C:\Program Files\Microchip\xc8\v2.31\pic\sources\c90\common\doprnt.c: 1410:    width = 
      +                          0;
  2064  0F5F  1283               	bcf	3,5	;RP0=0, select bank0
  2065  0F60  1303               	bcf	3,6	;RP1=0, select bank0
  2066  0F61  01CB               	clrf	sprintf@width
  2067  0F62  01CC               	clrf	sprintf@width+1
  2068  0F63                     l2423:
  2069                           
  2070                           ;C:\Program Files\Microchip\xc8\v2.31\pic\sources\c90\common\doprnt.c: 1448:   {;C:\Prog
      +                          ram Files\Microchip\xc8\v2.31\pic\sources\c90\common\doprnt.c: 1450:    if(width
  2071  0F63  084B               	movf	sprintf@width,w
  2072  0F64  044C               	iorwf	sprintf@width+1,w
  2073  0F65  1903               	btfsc	3,2
  2074  0F66  2F68               	goto	u3381
  2075  0F67  2F69               	goto	u3380
  2076  0F68                     u3381:
  2077  0F68  2FDB               	goto	l2437
  2078  0F69                     u3380:
  2079  0F69                     l2425:
  2080                           
  2081                           ;C:\Program Files\Microchip\xc8\v2.31\pic\sources\c90\common\doprnt.c: 1456:      ((*sp+
      +                          + = (' ')));
  2082  0F69  3020               	movlw	32
  2083  0F6A  00BF               	movwf	??_sprintf
  2084  0F6B  084A               	movf	sprintf@sp,w
  2085  0F6C  0084               	movwf	4
  2086  0F6D  083F               	movf	??_sprintf,w
  2087  0F6E  1383               	bcf	3,7	;select IRP bank0
  2088  0F6F  0080               	movwf	0
  2089  0F70                     l2427:
  2090  0F70  3001               	movlw	1
  2091  0F71  00BF               	movwf	??_sprintf
  2092  0F72  083F               	movf	??_sprintf,w
  2093  0F73  07CA               	addwf	sprintf@sp,f
  2094  0F74                     l2429:
  2095  0F74  30FF               	movlw	255
  2096  0F75  07CB               	addwf	sprintf@width,f
  2097  0F76  1803               	skipnc
  2098  0F77  0ACC               	incf	sprintf@width+1,f
  2099  0F78  30FF               	movlw	255
  2100  0F79  07CC               	addwf	sprintf@width+1,f
  2101  0F7A  084B               	movf	sprintf@width,w
  2102  0F7B  044C               	iorwf	sprintf@width+1,w
  2103  0F7C  1D03               	btfss	3,2
  2104  0F7D  2F7F               	goto	u3391
  2105  0F7E  2F80               	goto	u3390
  2106  0F7F                     u3391:
  2107  0F7F  2F69               	goto	l2425
  2108  0F80                     u3390:
  2109  0F80  2FDB               	goto	l2437
  2110  0F81                     l2431:
  2111                           
  2112                           ;C:\Program Files\Microchip\xc8\v2.31\pic\sources\c90\common\doprnt.c: 1504:    {;C:\Pro
      +                          gram Files\Microchip\xc8\v2.31\pic\sources\c90\common\doprnt.c: 1515:     c = (val / dpo
      +                          wers[(unsigned int)prec]) % 10 + '0';
  2113  0F81  3000               	movlw	0
  2114  0F82  00B0               	movwf	___llmod@divisor+3
  2115  0F83  3000               	movlw	0
  2116  0F84  00AF               	movwf	___llmod@divisor+2
  2117  0F85  3000               	movlw	0
  2118  0F86  00AE               	movwf	___llmod@divisor+1
  2119  0F87  300A               	movlw	10
  2120  0F88  00AD               	movwf	___llmod@divisor
  2121  0F89  084D               	movf	sprintf@prec,w
  2122  0F8A  00BF               	movwf	??_sprintf
  2123  0F8B  3001               	movlw	1
  2124  0F8C                     u3405:
  2125  0F8C  1003               	clrc
  2126  0F8D  0DBF               	rlf	??_sprintf,f
  2127  0F8E  3EFF               	addlw	-1
  2128  0F8F  1D03               	skipz
  2129  0F90  2F8C               	goto	u3405
  2130  0F91  1003               	clrc
  2131  0F92  0D3F               	rlf	??_sprintf,w
  2132  0F93  3E01               	addlw	low ((_dpowers-__stringbase)| (0+32768))
  2133  0F94  0084               	movwf	4
  2134  0F95  120A  118A  27B3  120A  158A  	fcall	stringdir
  2135  0F9A  00A0               	movwf	___lldiv@divisor
  2136  0F9B  120A  118A  27B3  120A  158A  	fcall	stringdir
  2137  0FA0  00A1               	movwf	___lldiv@divisor+1
  2138  0FA1  120A  118A  27B3  120A  158A  	fcall	stringdir
  2139  0FA6  00A2               	movwf	___lldiv@divisor+2
  2140  0FA7  120A  118A  27B3  120A  158A  	fcall	stringdir
  2141  0FAC  00A3               	movwf	___lldiv@divisor+3
  2142  0FAD  0849               	movf	sprintf@val+3,w
  2143  0FAE  00A7               	movwf	___lldiv@dividend+3
  2144  0FAF  0848               	movf	sprintf@val+2,w
  2145  0FB0  00A6               	movwf	___lldiv@dividend+2
  2146  0FB1  0847               	movf	sprintf@val+1,w
  2147  0FB2  00A5               	movwf	___lldiv@dividend+1
  2148  0FB3  0846               	movf	sprintf@val,w
  2149  0FB4  00A4               	movwf	___lldiv@dividend
  2150  0FB5  120A  158A  2270  120A  158A  	fcall	___lldiv
  2151  0FBA  1283               	bcf	3,5	;RP0=0, select bank0
  2152  0FBB  1303               	bcf	3,6	;RP1=0, select bank0
  2153  0FBC  0823               	movf	?___lldiv+3,w
  2154  0FBD  00B4               	movwf	___llmod@dividend+3
  2155  0FBE  0822               	movf	?___lldiv+2,w
  2156  0FBF  00B3               	movwf	___llmod@dividend+2
  2157  0FC0  0821               	movf	?___lldiv+1,w
  2158  0FC1  00B2               	movwf	___llmod@dividend+1
  2159  0FC2  0820               	movf	?___lldiv,w
  2160  0FC3  00B1               	movwf	___llmod@dividend
  2161  0FC4  120A  158A  221A  120A  158A  	fcall	___llmod
  2162  0FC9  1283               	bcf	3,5	;RP0=0, select bank0
  2163  0FCA  1303               	bcf	3,6	;RP1=0, select bank0
  2164  0FCB  082D               	movf	?___llmod,w
  2165  0FCC  3E30               	addlw	48
  2166  0FCD  00C0               	movwf	??_sprintf+1
  2167  0FCE  0840               	movf	??_sprintf+1,w
  2168  0FCF  00CF               	movwf	sprintf@c
  2169  0FD0                     l2433:
  2170                           
  2171                           ;C:\Program Files\Microchip\xc8\v2.31\pic\sources\c90\common\doprnt.c: 1549:    };C:\Pro
      +                          gram Files\Microchip\xc8\v2.31\pic\sources\c90\common\doprnt.c: 1550:    ((*sp++ = (c)))
      +                          ;
  2172  0FD0  084F               	movf	sprintf@c,w
  2173  0FD1  00BF               	movwf	??_sprintf
  2174  0FD2  084A               	movf	sprintf@sp,w
  2175  0FD3  0084               	movwf	4
  2176  0FD4  083F               	movf	??_sprintf,w
  2177  0FD5  1383               	bcf	3,7	;select IRP bank0
  2178  0FD6  0080               	movwf	0
  2179  0FD7                     l2435:
  2180  0FD7  3001               	movlw	1
  2181  0FD8  00BF               	movwf	??_sprintf
  2182  0FD9  083F               	movf	??_sprintf,w
  2183  0FDA  07CA               	addwf	sprintf@sp,f
  2184  0FDB                     l2437:
  2185                           
  2186                           ;C:\Program Files\Microchip\xc8\v2.31\pic\sources\c90\common\doprnt.c: 1500:   while(pre
      +                          c--) {
  2187  0FDB  30FF               	movlw	255
  2188  0FDC  07CD               	addwf	sprintf@prec,f
  2189  0FDD  1803               	skipnc
  2190  0FDE  0ACE               	incf	sprintf@prec+1,f
  2191  0FDF  30FF               	movlw	255
  2192  0FE0  07CE               	addwf	sprintf@prec+1,f
  2193  0FE1  0A4D               	incf	sprintf@prec,w
  2194  0FE2  1D03               	skipz
  2195  0FE3  2FE8               	goto	u3411
  2196  0FE4  0A4E               	incf	sprintf@prec+1,w
  2197  0FE5  1D03               	btfss	3,2
  2198  0FE6  2FE8               	goto	u3411
  2199  0FE7  2FE9               	goto	u3410
  2200  0FE8                     u3411:
  2201  0FE8  2F81               	goto	l2431
  2202  0FE9                     u3410:
  2203  0FE9                     l2439:
  2204                           
  2205                           ;C:\Program Files\Microchip\xc8\v2.31\pic\sources\c90\common\doprnt.c: 553:  while((c = 
      +                          *f++)) {
  2206  0FE9  3001               	movlw	1
  2207  0FEA  07B6               	addwf	sprintf@f,f
  2208  0FEB  30FF               	movlw	-1
  2209  0FEC  0736               	addwf	sprintf@f,w
  2210  0FED  0084               	movwf	4
  2211  0FEE  120A  118A  27B3  120A  158A  	fcall	stringdir
  2212  0FF3  00BF               	movwf	??_sprintf
  2213  0FF4  083F               	movf	??_sprintf,w
  2214  0FF5  00CF               	movwf	sprintf@c
  2215  0FF6  084F               	movf	sprintf@c,w
  2216  0FF7  1D03               	btfss	3,2
  2217  0FF8  2FFA               	goto	u3421
  2218  0FF9  2FFB               	goto	u3420
  2219  0FFA                     u3421:
  2220  0FFA  2DBC               	goto	l2343
  2221  0FFB                     u3420:
  2222  0FFB                     l2441:
  2223                           
  2224                           ;C:\Program Files\Microchip\xc8\v2.31\pic\sources\c90\common\doprnt.c: 1564:  *sp = 0;
  2225  0FFB  084A               	movf	sprintf@sp,w
  2226  0FFC  0084               	movwf	4
  2227  0FFD  1383               	bcf	3,7	;select IRP bank0
  2228  0FFE  0180               	clrf	0
  2229  0FFF                     l808:
  2230  0FFF  0008               	return
  2231  1000                     __end_of_sprintf:
  2232                           
  2233                           	psect	text3
  2234  07EC                     __ptext3:	
  2235 ;; *************** function _isdigit *****************
  2236 ;; Defined at:
  2237 ;;		line 8 in file "C:\Program Files\Microchip\xc8\v2.31\pic\sources\c90\common\isdigit.c"
  2238 ;; Parameters:    Size  Location     Type
  2239 ;;  c               1    wreg     unsigned char 
  2240 ;; Auto vars:     Size  Location     Type
  2241 ;;  c               1    7[COMMON] unsigned char 
  2242 ;; Return value:  Size  Location     Type
  2243 ;;		None               void
  2244 ;; Registers used:
  2245 ;;		wreg, status,2, status,0
  2246 ;; Tracked objects:
  2247 ;;		On entry : 0/0
  2248 ;;		On exit  : 0/0
  2249 ;;		Unchanged: 0/0
  2250 ;; Data sizes:     COMMON   BANK0   BANK1   BANK3   BANK2
  2251 ;;      Params:         0       0       0       0       0
  2252 ;;      Locals:         2       0       0       0       0
  2253 ;;      Temps:          0       0       0       0       0
  2254 ;;      Totals:         2       0       0       0       0
  2255 ;;Total ram usage:        2 bytes
  2256 ;; Hardware stack levels used:    1
  2257 ;; Hardware stack levels required when called:    1
  2258 ;; This function calls:
  2259 ;;		Nothing
  2260 ;; This function is called by:
  2261 ;;		_sprintf
  2262 ;; This function uses a non-reentrant model
  2263 ;;
  2264                           
  2265                           
  2266                           ;psect for function _isdigit
  2267  07EC                     _isdigit:
  2268                           
  2269                           ;incstack = 0
  2270                           ; Regs used in _isdigit: [wreg+status,2+status,0]
  2271                           ;isdigit@c stored from wreg
  2272  07EC  00F7               	movwf	isdigit@c
  2273  07ED                     l2055:
  2274  07ED  01F6               	clrf	_isdigit$912
  2275  07EE                     l2057:
  2276  07EE  303A               	movlw	58
  2277  07EF  0277               	subwf	isdigit@c,w
  2278  07F0  1803               	skipnc
  2279  07F1  2FF3               	goto	u2491
  2280  07F2  2FF4               	goto	u2490
  2281  07F3                     u2491:
  2282  07F3  2FFC               	goto	l2063
  2283  07F4                     u2490:
  2284  07F4                     l2059:
  2285  07F4  3030               	movlw	48
  2286  07F5  0277               	subwf	isdigit@c,w
  2287  07F6  1C03               	skipc
  2288  07F7  2FF9               	goto	u2501
  2289  07F8  2FFA               	goto	u2500
  2290  07F9                     u2501:
  2291  07F9  2FFC               	goto	l2063
  2292  07FA                     u2500:
  2293  07FA                     l2061:
  2294  07FA  01F6               	clrf	_isdigit$912
  2295  07FB  0AF6               	incf	_isdigit$912,f
  2296  07FC                     l2063:
  2297  07FC  0C76               	rrf	_isdigit$912,w
  2298  07FD                     l813:
  2299  07FD  0008               	return
  2300  07FE                     __end_of_isdigit:
  2301                           
  2302                           	psect	text4
  2303  0931                     __ptext4:	
  2304 ;; *************** function ___wmul *****************
  2305 ;; Defined at:
  2306 ;;		line 15 in file "C:\Program Files\Microchip\xc8\v2.31\pic\sources\c90\common\Umul16.c"
  2307 ;; Parameters:    Size  Location     Type
  2308 ;;  multiplier      2    0[BANK0 ] unsigned int 
  2309 ;;  multiplicand    2    2[BANK0 ] unsigned int 
  2310 ;; Auto vars:     Size  Location     Type
  2311 ;;  product         2    6[COMMON] unsigned int 
  2312 ;; Return value:  Size  Location     Type
  2313 ;;                  2    0[BANK0 ] unsigned int 
  2314 ;; Registers used:
  2315 ;;		wreg, status,2, status,0
  2316 ;; Tracked objects:
  2317 ;;		On entry : 0/0
  2318 ;;		On exit  : 0/0
  2319 ;;		Unchanged: 0/0
  2320 ;; Data sizes:     COMMON   BANK0   BANK1   BANK3   BANK2
  2321 ;;      Params:         0       4       0       0       0
  2322 ;;      Locals:         2       0       0       0       0
  2323 ;;      Temps:          0       0       0       0       0
  2324 ;;      Totals:         2       4       0       0       0
  2325 ;;Total ram usage:        6 bytes
  2326 ;; Hardware stack levels used:    1
  2327 ;; Hardware stack levels required when called:    1
  2328 ;; This function calls:
  2329 ;;		Nothing
  2330 ;; This function is called by:
  2331 ;;		_sprintf
  2332 ;; This function uses a non-reentrant model
  2333 ;;
  2334                           
  2335                           
  2336                           ;psect for function ___wmul
  2337  0931                     ___wmul:
  2338  0931                     l1789:	
  2339                           ;incstack = 0
  2340                           ; Regs used in ___wmul: [wreg+status,2+status,0]
  2341                           
  2342  0931  01F6               	clrf	___wmul@product
  2343  0932  01F7               	clrf	___wmul@product+1
  2344  0933                     l1791:
  2345  0933  1283               	bcf	3,5	;RP0=0, select bank0
  2346  0934  1303               	bcf	3,6	;RP1=0, select bank0
  2347  0935  1C20               	btfss	___wmul@multiplier,0
  2348  0936  2938               	goto	u1831
  2349  0937  2939               	goto	u1830
  2350  0938                     u1831:
  2351  0938  293F               	goto	l304
  2352  0939                     u1830:
  2353  0939                     l1793:
  2354  0939  0822               	movf	___wmul@multiplicand,w
  2355  093A  07F6               	addwf	___wmul@product,f
  2356  093B  1803               	skipnc
  2357  093C  0AF7               	incf	___wmul@product+1,f
  2358  093D  0823               	movf	___wmul@multiplicand+1,w
  2359  093E  07F7               	addwf	___wmul@product+1,f
  2360  093F                     l304:
  2361  093F  3001               	movlw	1
  2362  0940                     u1845:
  2363  0940  1003               	clrc
  2364  0941  0DA2               	rlf	___wmul@multiplicand,f
  2365  0942  0DA3               	rlf	___wmul@multiplicand+1,f
  2366  0943  3EFF               	addlw	-1
  2367  0944  1D03               	skipz
  2368  0945  2940               	goto	u1845
  2369  0946                     l1795:
  2370  0946  3001               	movlw	1
  2371  0947                     u1855:
  2372  0947  1003               	clrc
  2373  0948  0CA1               	rrf	___wmul@multiplier+1,f
  2374  0949  0CA0               	rrf	___wmul@multiplier,f
  2375  094A  3EFF               	addlw	-1
  2376  094B  1D03               	skipz
  2377  094C  2947               	goto	u1855
  2378  094D                     l1797:
  2379  094D  0820               	movf	___wmul@multiplier,w
  2380  094E  0421               	iorwf	___wmul@multiplier+1,w
  2381  094F  1D03               	btfss	3,2
  2382  0950  2952               	goto	u1861
  2383  0951  2953               	goto	u1860
  2384  0952                     u1861:
  2385  0952  2933               	goto	l1791
  2386  0953                     u1860:
  2387  0953                     l1799:
  2388  0953  0877               	movf	___wmul@product+1,w
  2389  0954  00A1               	movwf	?___wmul+1
  2390  0955  0876               	movf	___wmul@product,w
  2391  0956  00A0               	movwf	?___wmul
  2392  0957                     l306:
  2393  0957  0008               	return
  2394  0958                     __end_of___wmul:
  2395                           
  2396                           	psect	text5
  2397  0A1A                     __ptext5:	
  2398 ;; *************** function ___llmod *****************
  2399 ;; Defined at:
  2400 ;;		line 5 in file "C:\Program Files\Microchip\xc8\v2.31\pic\sources\c90\common\llmod.c"
  2401 ;; Parameters:    Size  Location     Type
  2402 ;;  divisor         4   13[BANK0 ] unsigned long 
  2403 ;;  dividend        4   17[BANK0 ] unsigned long 
  2404 ;; Auto vars:     Size  Location     Type
  2405 ;;  counter         1   21[BANK0 ] unsigned char 
  2406 ;; Return value:  Size  Location     Type
  2407 ;;                  4   13[BANK0 ] unsigned long 
  2408 ;; Registers used:
  2409 ;;		wreg, status,2, status,0
  2410 ;; Tracked objects:
  2411 ;;		On entry : 0/0
  2412 ;;		On exit  : 0/0
  2413 ;;		Unchanged: 0/0
  2414 ;; Data sizes:     COMMON   BANK0   BANK1   BANK3   BANK2
  2415 ;;      Params:         0       8       0       0       0
  2416 ;;      Locals:         0       1       0       0       0
  2417 ;;      Temps:          1       0       0       0       0
  2418 ;;      Totals:         1       9       0       0       0
  2419 ;;Total ram usage:       10 bytes
  2420 ;; Hardware stack levels used:    1
  2421 ;; Hardware stack levels required when called:    1
  2422 ;; This function calls:
  2423 ;;		Nothing
  2424 ;; This function is called by:
  2425 ;;		_sprintf
  2426 ;; This function uses a non-reentrant model
  2427 ;;
  2428                           
  2429                           
  2430                           ;psect for function ___llmod
  2431  0A1A                     ___llmod:
  2432  0A1A                     l1827:	
  2433                           ;incstack = 0
  2434                           ; Regs used in ___llmod: [wreg+status,2+status,0]
  2435                           
  2436  0A1A  1283               	bcf	3,5	;RP0=0, select bank0
  2437  0A1B  1303               	bcf	3,6	;RP1=0, select bank0
  2438  0A1C  0830               	movf	___llmod@divisor+3,w
  2439  0A1D  042F               	iorwf	___llmod@divisor+2,w
  2440  0A1E  042E               	iorwf	___llmod@divisor+1,w
  2441  0A1F  042D               	iorwf	___llmod@divisor,w
  2442  0A20  1903               	skipnz
  2443  0A21  2A23               	goto	u1941
  2444  0A22  2A24               	goto	u1940
  2445  0A23                     u1941:
  2446  0A23  2A67               	goto	l1843
  2447  0A24                     u1940:
  2448  0A24                     l1829:
  2449  0A24  01B5               	clrf	___llmod@counter
  2450  0A25  0AB5               	incf	___llmod@counter,f
  2451  0A26  2A34               	goto	l1833
  2452  0A27                     l1831:
  2453  0A27  3001               	movlw	1
  2454  0A28  00F7               	movwf	??___llmod
  2455  0A29                     u1955:
  2456  0A29  1003               	clrc
  2457  0A2A  0DAD               	rlf	___llmod@divisor,f
  2458  0A2B  0DAE               	rlf	___llmod@divisor+1,f
  2459  0A2C  0DAF               	rlf	___llmod@divisor+2,f
  2460  0A2D  0DB0               	rlf	___llmod@divisor+3,f
  2461  0A2E  0BF7               	decfsz	??___llmod,f
  2462  0A2F  2A29               	goto	u1955
  2463  0A30  3001               	movlw	1
  2464  0A31  00F7               	movwf	??___llmod
  2465  0A32  0877               	movf	??___llmod,w
  2466  0A33  07B5               	addwf	___llmod@counter,f
  2467  0A34                     l1833:
  2468  0A34  1FB0               	btfss	___llmod@divisor+3,7
  2469  0A35  2A37               	goto	u1961
  2470  0A36  2A38               	goto	u1960
  2471  0A37                     u1961:
  2472  0A37  2A27               	goto	l1831
  2473  0A38                     u1960:
  2474  0A38                     l1835:
  2475  0A38  0830               	movf	___llmod@divisor+3,w
  2476  0A39  0234               	subwf	___llmod@dividend+3,w
  2477  0A3A  1D03               	skipz
  2478  0A3B  2A46               	goto	u1975
  2479  0A3C  082F               	movf	___llmod@divisor+2,w
  2480  0A3D  0233               	subwf	___llmod@dividend+2,w
  2481  0A3E  1D03               	skipz
  2482  0A3F  2A46               	goto	u1975
  2483  0A40  082E               	movf	___llmod@divisor+1,w
  2484  0A41  0232               	subwf	___llmod@dividend+1,w
  2485  0A42  1D03               	skipz
  2486  0A43  2A46               	goto	u1975
  2487  0A44  082D               	movf	___llmod@divisor,w
  2488  0A45  0231               	subwf	___llmod@dividend,w
  2489  0A46                     u1975:
  2490  0A46  1C03               	skipc
  2491  0A47  2A49               	goto	u1971
  2492  0A48  2A4A               	goto	u1970
  2493  0A49                     u1971:
  2494  0A49  2A58               	goto	l1839
  2495  0A4A                     u1970:
  2496  0A4A                     l1837:
  2497  0A4A  082D               	movf	___llmod@divisor,w
  2498  0A4B  02B1               	subwf	___llmod@dividend,f
  2499  0A4C  082E               	movf	___llmod@divisor+1,w
  2500  0A4D  1C03               	skipc
  2501  0A4E  0F2E               	incfsz	___llmod@divisor+1,w
  2502  0A4F  02B2               	subwf	___llmod@dividend+1,f
  2503  0A50  082F               	movf	___llmod@divisor+2,w
  2504  0A51  1C03               	skipc
  2505  0A52  0F2F               	incfsz	___llmod@divisor+2,w
  2506  0A53  02B3               	subwf	___llmod@dividend+2,f
  2507  0A54  0830               	movf	___llmod@divisor+3,w
  2508  0A55  1C03               	skipc
  2509  0A56  0F30               	incfsz	___llmod@divisor+3,w
  2510  0A57  02B4               	subwf	___llmod@dividend+3,f
  2511  0A58                     l1839:
  2512  0A58  3001               	movlw	1
  2513  0A59                     u1985:
  2514  0A59  1003               	clrc
  2515  0A5A  0CB0               	rrf	___llmod@divisor+3,f
  2516  0A5B  0CAF               	rrf	___llmod@divisor+2,f
  2517  0A5C  0CAE               	rrf	___llmod@divisor+1,f
  2518  0A5D  0CAD               	rrf	___llmod@divisor,f
  2519  0A5E  3EFF               	addlw	-1
  2520  0A5F  1D03               	skipz
  2521  0A60  2A59               	goto	u1985
  2522  0A61                     l1841:
  2523  0A61  3001               	movlw	1
  2524  0A62  02B5               	subwf	___llmod@counter,f
  2525  0A63  1D03               	btfss	3,2
  2526  0A64  2A66               	goto	u1991
  2527  0A65  2A67               	goto	u1990
  2528  0A66                     u1991:
  2529  0A66  2A38               	goto	l1835
  2530  0A67                     u1990:
  2531  0A67                     l1843:
  2532  0A67  0834               	movf	___llmod@dividend+3,w
  2533  0A68  00B0               	movwf	?___llmod+3
  2534  0A69  0833               	movf	___llmod@dividend+2,w
  2535  0A6A  00AF               	movwf	?___llmod+2
  2536  0A6B  0832               	movf	___llmod@dividend+1,w
  2537  0A6C  00AE               	movwf	?___llmod+1
  2538  0A6D  0831               	movf	___llmod@dividend,w
  2539  0A6E  00AD               	movwf	?___llmod
  2540  0A6F                     l526:
  2541  0A6F  0008               	return
  2542  0A70                     __end_of___llmod:
  2543                           
  2544                           	psect	text6
  2545  0CF8                     __ptext6:	
  2546 ;; *************** function ___xxtofl *****************
  2547 ;; Defined at:
  2548 ;;		line 10 in file "C:\Program Files\Microchip\xc8\v2.31\pic\sources\c90\common\xxtofl.c"
  2549 ;; Parameters:    Size  Location     Type
  2550 ;;  sign            1    wreg     unsigned char 
  2551 ;;  val             4    0[BANK0 ] long 
  2552 ;; Auto vars:     Size  Location     Type
  2553 ;;  sign            1    8[BANK0 ] unsigned char 
  2554 ;;  arg             4   10[BANK0 ] unsigned long 
  2555 ;;  exp             1    9[BANK0 ] unsigned char 
  2556 ;; Return value:  Size  Location     Type
  2557 ;;                  4    0[BANK0 ] unsigned char 
  2558 ;; Registers used:
  2559 ;;		wreg, status,2, status,0
  2560 ;; Tracked objects:
  2561 ;;		On entry : 0/0
  2562 ;;		On exit  : 0/0
  2563 ;;		Unchanged: 0/0
  2564 ;; Data sizes:     COMMON   BANK0   BANK1   BANK3   BANK2
  2565 ;;      Params:         0       4       0       0       0
  2566 ;;      Locals:         0       6       0       0       0
  2567 ;;      Temps:          0       4       0       0       0
  2568 ;;      Totals:         0      14       0       0       0
  2569 ;;Total ram usage:       14 bytes
  2570 ;; Hardware stack levels used:    1
  2571 ;; Hardware stack levels required when called:    1
  2572 ;; This function calls:
  2573 ;;		Nothing
  2574 ;; This function is called by:
  2575 ;;		_main
  2576 ;;		_ftoa
  2577 ;; This function uses a non-reentrant model
  2578 ;;
  2579                           
  2580                           
  2581                           ;psect for function ___xxtofl
  2582  0CF8                     ___xxtofl:
  2583                           
  2584                           ;incstack = 0
  2585                           ; Regs used in ___xxtofl: [wreg+status,2+status,0]
  2586                           ;___xxtofl@sign stored from wreg
  2587  0CF8  1283               	bcf	3,5	;RP0=0, select bank0
  2588  0CF9  1303               	bcf	3,6	;RP1=0, select bank0
  2589  0CFA  00A8               	movwf	___xxtofl@sign
  2590  0CFB                     l2297:
  2591  0CFB  0828               	movf	___xxtofl@sign,w
  2592  0CFC  1903               	btfsc	3,2
  2593  0CFD  2CFF               	goto	u3101
  2594  0CFE  2D00               	goto	u3100
  2595  0CFF                     u3101:
  2596  0CFF  2D14               	goto	l2303
  2597  0D00                     u3100:
  2598  0D00                     l2299:
  2599  0D00  1FA3               	btfss	___xxtofl@val+3,7
  2600  0D01  2D03               	goto	u3111
  2601  0D02  2D04               	goto	u3110
  2602  0D03                     u3111:
  2603  0D03  2D14               	goto	l2303
  2604  0D04                     u3110:
  2605  0D04                     l2301:
  2606  0D04  0920               	comf	___xxtofl@val,w
  2607  0D05  00AA               	movwf	___xxtofl@arg
  2608  0D06  0921               	comf	___xxtofl@val+1,w
  2609  0D07  00AB               	movwf	___xxtofl@arg+1
  2610  0D08  0922               	comf	___xxtofl@val+2,w
  2611  0D09  00AC               	movwf	___xxtofl@arg+2
  2612  0D0A  0923               	comf	___xxtofl@val+3,w
  2613  0D0B  00AD               	movwf	___xxtofl@arg+3
  2614  0D0C  0AAA               	incf	___xxtofl@arg,f
  2615  0D0D  1903               	skipnz
  2616  0D0E  0AAB               	incf	___xxtofl@arg+1,f
  2617  0D0F  1903               	skipnz
  2618  0D10  0AAC               	incf	___xxtofl@arg+2,f
  2619  0D11  1903               	skipnz
  2620  0D12  0AAD               	incf	___xxtofl@arg+3,f
  2621  0D13  2D1C               	goto	l737
  2622  0D14                     l2303:
  2623  0D14  0823               	movf	___xxtofl@val+3,w
  2624  0D15  00AD               	movwf	___xxtofl@arg+3
  2625  0D16  0822               	movf	___xxtofl@val+2,w
  2626  0D17  00AC               	movwf	___xxtofl@arg+2
  2627  0D18  0821               	movf	___xxtofl@val+1,w
  2628  0D19  00AB               	movwf	___xxtofl@arg+1
  2629  0D1A  0820               	movf	___xxtofl@val,w
  2630  0D1B  00AA               	movwf	___xxtofl@arg
  2631  0D1C                     l737:
  2632  0D1C  0823               	movf	___xxtofl@val+3,w
  2633  0D1D  0422               	iorwf	___xxtofl@val+2,w
  2634  0D1E  0421               	iorwf	___xxtofl@val+1,w
  2635  0D1F  0420               	iorwf	___xxtofl@val,w
  2636  0D20  1D03               	skipz
  2637  0D21  2D23               	goto	u3121
  2638  0D22  2D24               	goto	u3120
  2639  0D23                     u3121:
  2640  0D23  2D2D               	goto	l2309
  2641  0D24                     u3120:
  2642  0D24                     l2305:
  2643  0D24  3000               	movlw	0
  2644  0D25  00A3               	movwf	?___xxtofl+3
  2645  0D26  3000               	movlw	0
  2646  0D27  00A2               	movwf	?___xxtofl+2
  2647  0D28  3000               	movlw	0
  2648  0D29  00A1               	movwf	?___xxtofl+1
  2649  0D2A  3000               	movlw	0
  2650  0D2B  00A0               	movwf	?___xxtofl
  2651  0D2C  2DB3               	goto	l739
  2652  0D2D                     l2309:
  2653  0D2D  3096               	movlw	150
  2654  0D2E  00A4               	movwf	??___xxtofl
  2655  0D2F  0824               	movf	??___xxtofl,w
  2656  0D30  00A9               	movwf	___xxtofl@exp
  2657  0D31  2D3F               	goto	l2313
  2658  0D32                     l2311:
  2659  0D32  3001               	movlw	1
  2660  0D33  00A4               	movwf	??___xxtofl
  2661  0D34  0824               	movf	??___xxtofl,w
  2662  0D35  07A9               	addwf	___xxtofl@exp,f
  2663  0D36  3001               	movlw	1
  2664  0D37                     u3135:
  2665  0D37  1003               	clrc
  2666  0D38  0CAD               	rrf	___xxtofl@arg+3,f
  2667  0D39  0CAC               	rrf	___xxtofl@arg+2,f
  2668  0D3A  0CAB               	rrf	___xxtofl@arg+1,f
  2669  0D3B  0CAA               	rrf	___xxtofl@arg,f
  2670  0D3C  3EFF               	addlw	-1
  2671  0D3D  1D03               	skipz
  2672  0D3E  2D37               	goto	u3135
  2673  0D3F                     l2313:
  2674  0D3F  30FE               	movlw	254
  2675  0D40  052D               	andwf	___xxtofl@arg+3,w
  2676  0D41  1D03               	btfss	3,2
  2677  0D42  2D44               	goto	u3141
  2678  0D43  2D45               	goto	u3140
  2679  0D44                     u3141:
  2680  0D44  2D32               	goto	l2311
  2681  0D45                     u3140:
  2682  0D45  2D61               	goto	l743
  2683  0D46                     l2315:
  2684  0D46  3001               	movlw	1
  2685  0D47  00A4               	movwf	??___xxtofl
  2686  0D48  0824               	movf	??___xxtofl,w
  2687  0D49  07A9               	addwf	___xxtofl@exp,f
  2688  0D4A                     l2317:
  2689  0D4A  3001               	movlw	1
  2690  0D4B  07AA               	addwf	___xxtofl@arg,f
  2691  0D4C  3000               	movlw	0
  2692  0D4D  1803               	skipnc
  2693  0D4E  3001               	movlw	1
  2694  0D4F  07AB               	addwf	___xxtofl@arg+1,f
  2695  0D50  3000               	movlw	0
  2696  0D51  1803               	skipnc
  2697  0D52  3001               	movlw	1
  2698  0D53  07AC               	addwf	___xxtofl@arg+2,f
  2699  0D54  3000               	movlw	0
  2700  0D55  1803               	skipnc
  2701  0D56  3001               	movlw	1
  2702  0D57  07AD               	addwf	___xxtofl@arg+3,f
  2703  0D58                     l2319:
  2704  0D58  3001               	movlw	1
  2705  0D59                     u3155:
  2706  0D59  1003               	clrc
  2707  0D5A  0CAD               	rrf	___xxtofl@arg+3,f
  2708  0D5B  0CAC               	rrf	___xxtofl@arg+2,f
  2709  0D5C  0CAB               	rrf	___xxtofl@arg+1,f
  2710  0D5D  0CAA               	rrf	___xxtofl@arg,f
  2711  0D5E  3EFF               	addlw	-1
  2712  0D5F  1D03               	skipz
  2713  0D60  2D59               	goto	u3155
  2714  0D61                     l743:
  2715  0D61  30FF               	movlw	255
  2716  0D62  052D               	andwf	___xxtofl@arg+3,w
  2717  0D63  1D03               	btfss	3,2
  2718  0D64  2D66               	goto	u3161
  2719  0D65  2D67               	goto	u3160
  2720  0D66                     u3161:
  2721  0D66  2D46               	goto	l2315
  2722  0D67                     u3160:
  2723  0D67  2D73               	goto	l2323
  2724  0D68                     l2321:
  2725  0D68  3001               	movlw	1
  2726  0D69  02A9               	subwf	___xxtofl@exp,f
  2727  0D6A  3001               	movlw	1
  2728  0D6B  00A4               	movwf	??___xxtofl
  2729  0D6C                     u3175:
  2730  0D6C  1003               	clrc
  2731  0D6D  0DAA               	rlf	___xxtofl@arg,f
  2732  0D6E  0DAB               	rlf	___xxtofl@arg+1,f
  2733  0D6F  0DAC               	rlf	___xxtofl@arg+2,f
  2734  0D70  0DAD               	rlf	___xxtofl@arg+3,f
  2735  0D71  0BA4               	decfsz	??___xxtofl,f
  2736  0D72  2D6C               	goto	u3175
  2737  0D73                     l2323:
  2738  0D73  1BAC               	btfsc	___xxtofl@arg+2,7
  2739  0D74  2D76               	goto	u3181
  2740  0D75  2D77               	goto	u3180
  2741  0D76                     u3181:
  2742  0D76  2D7D               	goto	l750
  2743  0D77                     u3180:
  2744  0D77                     l2325:
  2745  0D77  3002               	movlw	2
  2746  0D78  0229               	subwf	___xxtofl@exp,w
  2747  0D79  1803               	skipnc
  2748  0D7A  2D7C               	goto	u3191
  2749  0D7B  2D7D               	goto	u3190
  2750  0D7C                     u3191:
  2751  0D7C  2D68               	goto	l2321
  2752  0D7D                     u3190:
  2753  0D7D                     l750:
  2754  0D7D  1829               	btfsc	___xxtofl@exp,0
  2755  0D7E  2D80               	goto	u3201
  2756  0D7F  2D81               	goto	u3200
  2757  0D80                     u3201:
  2758  0D80  2D89               	goto	l751
  2759  0D81                     u3200:
  2760  0D81                     l2327:
  2761  0D81  30FF               	movlw	255
  2762  0D82  05AA               	andwf	___xxtofl@arg,f
  2763  0D83  30FF               	movlw	255
  2764  0D84  05AB               	andwf	___xxtofl@arg+1,f
  2765  0D85  307F               	movlw	127
  2766  0D86  05AC               	andwf	___xxtofl@arg+2,f
  2767  0D87  30FF               	movlw	255
  2768  0D88  05AD               	andwf	___xxtofl@arg+3,f
  2769  0D89                     l751:
  2770  0D89  1003               	clrc
  2771  0D8A  0CA9               	rrf	___xxtofl@exp,f
  2772  0D8B                     l2329:
  2773  0D8B  0829               	movf	___xxtofl@exp,w
  2774  0D8C  00A4               	movwf	??___xxtofl
  2775  0D8D  01A5               	clrf	??___xxtofl+1
  2776  0D8E  01A6               	clrf	??___xxtofl+2
  2777  0D8F  01A7               	clrf	??___xxtofl+3
  2778  0D90  3018               	movlw	24
  2779  0D91                     u3215:
  2780  0D91  1003               	clrc
  2781  0D92  0DA4               	rlf	??___xxtofl,f
  2782  0D93  0DA5               	rlf	??___xxtofl+1,f
  2783  0D94  0DA6               	rlf	??___xxtofl+2,f
  2784  0D95  0DA7               	rlf	??___xxtofl+3,f
  2785  0D96                     u3210:
  2786  0D96  3EFF               	addlw	-1
  2787  0D97  1D03               	skipz
  2788  0D98  2D91               	goto	u3215
  2789  0D99  0824               	movf	??___xxtofl,w
  2790  0D9A  04AA               	iorwf	___xxtofl@arg,f
  2791  0D9B  0825               	movf	??___xxtofl+1,w
  2792  0D9C  04AB               	iorwf	___xxtofl@arg+1,f
  2793  0D9D  0826               	movf	??___xxtofl+2,w
  2794  0D9E  04AC               	iorwf	___xxtofl@arg+2,f
  2795  0D9F  0827               	movf	??___xxtofl+3,w
  2796  0DA0  04AD               	iorwf	___xxtofl@arg+3,f
  2797  0DA1                     l2331:
  2798  0DA1  0828               	movf	___xxtofl@sign,w
  2799  0DA2  1903               	btfsc	3,2
  2800  0DA3  2DA5               	goto	u3221
  2801  0DA4  2DA6               	goto	u3220
  2802  0DA5                     u3221:
  2803  0DA5  2DAB               	goto	l2337
  2804  0DA6                     u3220:
  2805  0DA6                     l2333:
  2806  0DA6  1FA3               	btfss	___xxtofl@val+3,7
  2807  0DA7  2DA9               	goto	u3231
  2808  0DA8  2DAA               	goto	u3230
  2809  0DA9                     u3231:
  2810  0DA9  2DAB               	goto	l2337
  2811  0DAA                     u3230:
  2812  0DAA                     l2335:
  2813  0DAA  17AD               	bsf	___xxtofl@arg+3,7
  2814  0DAB                     l2337:
  2815  0DAB  082D               	movf	___xxtofl@arg+3,w
  2816  0DAC  00A3               	movwf	?___xxtofl+3
  2817  0DAD  082C               	movf	___xxtofl@arg+2,w
  2818  0DAE  00A2               	movwf	?___xxtofl+2
  2819  0DAF  082B               	movf	___xxtofl@arg+1,w
  2820  0DB0  00A1               	movwf	?___xxtofl+1
  2821  0DB1  082A               	movf	___xxtofl@arg,w
  2822  0DB2  00A0               	movwf	?___xxtofl
  2823  0DB3                     l739:
  2824  0DB3  0008               	return
  2825  0DB4                     __end_of___xxtofl:
  2826                           
  2827                           	psect	text7
  2828  0B4B                     __ptext7:	
  2829 ;; *************** function ___fltol *****************
  2830 ;; Defined at:
  2831 ;;		line 43 in file "C:\Program Files\Microchip\xc8\v2.31\pic\sources\c90\common\fltol.c"
  2832 ;; Parameters:    Size  Location     Type
  2833 ;;  f1              4   40[BANK0 ] unsigned char 
  2834 ;; Auto vars:     Size  Location     Type
  2835 ;;  exp1            1   50[BANK0 ] unsigned char 
  2836 ;;  sign1           1   49[BANK0 ] unsigned char 
  2837 ;; Return value:  Size  Location     Type
  2838 ;;                  4   40[BANK0 ] long 
  2839 ;; Registers used:
  2840 ;;		wreg, status,2, status,0
  2841 ;; Tracked objects:
  2842 ;;		On entry : 0/0
  2843 ;;		On exit  : 0/0
  2844 ;;		Unchanged: 0/0
  2845 ;; Data sizes:     COMMON   BANK0   BANK1   BANK3   BANK2
  2846 ;;      Params:         0       4       0       0       0
  2847 ;;      Locals:         0       2       0       0       0
  2848 ;;      Temps:          0       5       0       0       0
  2849 ;;      Totals:         0      11       0       0       0
  2850 ;;Total ram usage:       11 bytes
  2851 ;; Hardware stack levels used:    1
  2852 ;; Hardware stack levels required when called:    1
  2853 ;; This function calls:
  2854 ;;		Nothing
  2855 ;; This function is called by:
  2856 ;;		_ftoa
  2857 ;; This function uses a non-reentrant model
  2858 ;;
  2859                           
  2860                           
  2861                           ;psect for function ___fltol
  2862  0B4B                     ___fltol:
  2863  0B4B                     l2115:	
  2864                           ;incstack = 0
  2865                           ; Regs used in ___fltol: [wreg+status,2+status,0]
  2866                           
  2867  0B4B  1003               	clrc
  2868  0B4C  1283               	bcf	3,5	;RP0=0, select bank0
  2869  0B4D  1303               	bcf	3,6	;RP1=0, select bank0
  2870  0B4E  0D4A               	rlf	___fltol@f1+2,w
  2871  0B4F  0D4B               	rlf	___fltol@f1+3,w
  2872  0B50  00CC               	movwf	??___fltol
  2873  0B51  084C               	movf	??___fltol,w
  2874  0B52  00D2               	movwf	___fltol@exp1
  2875  0B53  0852               	movf	___fltol@exp1,w
  2876  0B54  1D03               	btfss	3,2
  2877  0B55  2B57               	goto	u2631
  2878  0B56  2B58               	goto	u2630
  2879  0B57                     u2631:
  2880  0B57  2B61               	goto	l2121
  2881  0B58                     u2630:
  2882  0B58                     l2117:
  2883  0B58  3000               	movlw	0
  2884  0B59  00CB               	movwf	?___fltol+3
  2885  0B5A  3000               	movlw	0
  2886  0B5B  00CA               	movwf	?___fltol+2
  2887  0B5C  3000               	movlw	0
  2888  0B5D  00C9               	movwf	?___fltol+1
  2889  0B5E  3000               	movlw	0
  2890  0B5F  00C8               	movwf	?___fltol
  2891  0B60  2BC6               	goto	l490
  2892  0B61                     l2121:
  2893  0B61  0848               	movf	___fltol@f1,w
  2894  0B62  00CC               	movwf	??___fltol
  2895  0B63  0849               	movf	___fltol@f1+1,w
  2896  0B64  00CD               	movwf	??___fltol+1
  2897  0B65  084A               	movf	___fltol@f1+2,w
  2898  0B66  00CE               	movwf	??___fltol+2
  2899  0B67  084B               	movf	___fltol@f1+3,w
  2900  0B68  00CF               	movwf	??___fltol+3
  2901  0B69  301F               	movlw	31
  2902  0B6A                     u2645:
  2903  0B6A  1003               	clrc
  2904  0B6B  0CCF               	rrf	??___fltol+3,f
  2905  0B6C  0CCE               	rrf	??___fltol+2,f
  2906  0B6D  0CCD               	rrf	??___fltol+1,f
  2907  0B6E  0CCC               	rrf	??___fltol,f
  2908  0B6F                     u2640:
  2909  0B6F  3EFF               	addlw	-1
  2910  0B70  1D03               	skipz
  2911  0B71  2B6A               	goto	u2645
  2912  0B72  084C               	movf	??___fltol,w
  2913  0B73  00D0               	movwf	??___fltol+4
  2914  0B74  0850               	movf	??___fltol+4,w
  2915  0B75  00D1               	movwf	___fltol@sign1
  2916  0B76                     l2123:
  2917  0B76  17CA               	bsf	___fltol@f1+2,7
  2918  0B77                     l2125:
  2919  0B77  30FF               	movlw	255
  2920  0B78  05C8               	andwf	___fltol@f1,f
  2921  0B79  30FF               	movlw	255
  2922  0B7A  05C9               	andwf	___fltol@f1+1,f
  2923  0B7B  30FF               	movlw	255
  2924  0B7C  05CA               	andwf	___fltol@f1+2,f
  2925  0B7D  3000               	movlw	0
  2926  0B7E  05CB               	andwf	___fltol@f1+3,f
  2927  0B7F                     l2127:
  2928  0B7F  3096               	movlw	150
  2929  0B80  02D2               	subwf	___fltol@exp1,f
  2930  0B81                     l2129:
  2931  0B81  1FD2               	btfss	___fltol@exp1,7
  2932  0B82  2B84               	goto	u2651
  2933  0B83  2B85               	goto	u2650
  2934  0B84                     u2651:
  2935  0B84  2B9F               	goto	l2139
  2936  0B85                     u2650:
  2937  0B85                     l2131:
  2938  0B85  0852               	movf	___fltol@exp1,w
  2939  0B86  3A80               	xorlw	128
  2940  0B87  3E97               	addlw	151
  2941  0B88  1803               	skipnc
  2942  0B89  2B8B               	goto	u2661
  2943  0B8A  2B8C               	goto	u2660
  2944  0B8B                     u2661:
  2945  0B8B  2B8D               	goto	l2137
  2946  0B8C                     u2660:
  2947  0B8C  2B58               	goto	l2117
  2948  0B8D                     l2137:
  2949  0B8D  3001               	movlw	1
  2950  0B8E                     u2675:
  2951  0B8E  1003               	clrc
  2952  0B8F  0CCB               	rrf	___fltol@f1+3,f
  2953  0B90  0CCA               	rrf	___fltol@f1+2,f
  2954  0B91  0CC9               	rrf	___fltol@f1+1,f
  2955  0B92  0CC8               	rrf	___fltol@f1,f
  2956  0B93  3EFF               	addlw	-1
  2957  0B94  1D03               	skipz
  2958  0B95  2B8E               	goto	u2675
  2959  0B96  3001               	movlw	1
  2960  0B97  00CC               	movwf	??___fltol
  2961  0B98  084C               	movf	??___fltol,w
  2962  0B99  07D2               	addwf	___fltol@exp1,f
  2963  0B9A  1D03               	btfss	3,2
  2964  0B9B  2B9D               	goto	u2681
  2965  0B9C  2B9E               	goto	u2680
  2966  0B9D                     u2681:
  2967  0B9D  2B8D               	goto	l2137
  2968  0B9E                     u2680:
  2969  0B9E  2BB6               	goto	l2147
  2970  0B9F                     l2139:
  2971  0B9F  3020               	movlw	32
  2972  0BA0  0252               	subwf	___fltol@exp1,w
  2973  0BA1  1C03               	skipc
  2974  0BA2  2BA4               	goto	u2691
  2975  0BA3  2BA5               	goto	u2690
  2976  0BA4                     u2691:
  2977  0BA4  2BB1               	goto	l497
  2978  0BA5                     u2690:
  2979  0BA5  2B58               	goto	l2117
  2980  0BA6                     l2145:
  2981  0BA6  3001               	movlw	1
  2982  0BA7  00CC               	movwf	??___fltol
  2983  0BA8                     u2705:
  2984  0BA8  1003               	clrc
  2985  0BA9  0DC8               	rlf	___fltol@f1,f
  2986  0BAA  0DC9               	rlf	___fltol@f1+1,f
  2987  0BAB  0DCA               	rlf	___fltol@f1+2,f
  2988  0BAC  0DCB               	rlf	___fltol@f1+3,f
  2989  0BAD  0BCC               	decfsz	??___fltol,f
  2990  0BAE  2BA8               	goto	u2705
  2991  0BAF  3001               	movlw	1
  2992  0BB0  02D2               	subwf	___fltol@exp1,f
  2993  0BB1                     l497:
  2994  0BB1  0852               	movf	___fltol@exp1,w
  2995  0BB2  1D03               	btfss	3,2
  2996  0BB3  2BB5               	goto	u2711
  2997  0BB4  2BB6               	goto	u2710
  2998  0BB5                     u2711:
  2999  0BB5  2BA6               	goto	l2145
  3000  0BB6                     u2710:
  3001  0BB6                     l2147:
  3002  0BB6  0851               	movf	___fltol@sign1,w
  3003  0BB7  1903               	btfsc	3,2
  3004  0BB8  2BBA               	goto	u2721
  3005  0BB9  2BBB               	goto	u2720
  3006  0BBA                     u2721:
  3007  0BBA  2BC6               	goto	l500
  3008  0BBB                     u2720:
  3009  0BBB                     l2149:
  3010  0BBB  09C8               	comf	___fltol@f1,f
  3011  0BBC  09C9               	comf	___fltol@f1+1,f
  3012  0BBD  09CA               	comf	___fltol@f1+2,f
  3013  0BBE  09CB               	comf	___fltol@f1+3,f
  3014  0BBF  0AC8               	incf	___fltol@f1,f
  3015  0BC0  1903               	skipnz
  3016  0BC1  0AC9               	incf	___fltol@f1+1,f
  3017  0BC2  1903               	skipnz
  3018  0BC3  0ACA               	incf	___fltol@f1+2,f
  3019  0BC4  1903               	skipnz
  3020  0BC5  0ACB               	incf	___fltol@f1+3,f
  3021  0BC6                     l500:
  3022  0BC6                     l490:
  3023  0BC6  0008               	return
  3024  0BC7                     __end_of___fltol:
  3025                           
  3026                           	psect	text8
  3027  090D                     __ptext8:	
  3028 ;; *************** function ___flsub *****************
  3029 ;; Defined at:
  3030 ;;		line 242 in file "C:\Program Files\Microchip\xc8\v2.31\pic\sources\c90\common\sprcadd.c"
  3031 ;; Parameters:    Size  Location     Type
  3032 ;;  a               4   20[BANK0 ] long 
  3033 ;;  b               4   24[BANK0 ] long 
  3034 ;; Auto vars:     Size  Location     Type
  3035 ;;		None
  3036 ;; Return value:  Size  Location     Type
  3037 ;;                  4   20[BANK0 ] long 
  3038 ;; Registers used:
  3039 ;;		wreg, status,2, status,0, btemp+1, pclath, cstack
  3040 ;; Tracked objects:
  3041 ;;		On entry : 0/0
  3042 ;;		On exit  : 0/0
  3043 ;;		Unchanged: 0/0
  3044 ;; Data sizes:     COMMON   BANK0   BANK1   BANK3   BANK2
  3045 ;;      Params:         0       8       0       0       0
  3046 ;;      Locals:         0       0       0       0       0
  3047 ;;      Temps:          0       0       0       0       0
  3048 ;;      Totals:         0       8       0       0       0
  3049 ;;Total ram usage:        8 bytes
  3050 ;; Hardware stack levels used:    1
  3051 ;; Hardware stack levels required when called:    2
  3052 ;; This function calls:
  3053 ;;		___fladd
  3054 ;; This function is called by:
  3055 ;;		_ftoa
  3056 ;; This function uses a non-reentrant model
  3057 ;;
  3058                           
  3059                           
  3060                           ;psect for function ___flsub
  3061  090D                     ___flsub:
  3062  090D                     l2151:	
  3063                           ;incstack = 0
  3064                           ; Regs used in ___flsub: [wreg+status,2+status,0+btemp+1+pclath+cstack]
  3065                           
  3066  090D  3080               	movlw	128
  3067  090E  1283               	bcf	3,5	;RP0=0, select bank0
  3068  090F  1303               	bcf	3,6	;RP1=0, select bank0
  3069  0910  06B7               	xorwf	___flsub@a+3,f
  3070  0911                     l2153:
  3071  0911  083B               	movf	___flsub@b+3,w
  3072  0912  00A3               	movwf	___fladd@b+3
  3073  0913  083A               	movf	___flsub@b+2,w
  3074  0914  00A2               	movwf	___fladd@b+2
  3075  0915  0839               	movf	___flsub@b+1,w
  3076  0916  00A1               	movwf	___fladd@b+1
  3077  0917  0838               	movf	___flsub@b,w
  3078  0918  00A0               	movwf	___fladd@b
  3079  0919  0837               	movf	___flsub@a+3,w
  3080  091A  00A7               	movwf	___fladd@a+3
  3081  091B  0836               	movf	___flsub@a+2,w
  3082  091C  00A6               	movwf	___fladd@a+2
  3083  091D  0835               	movf	___flsub@a+1,w
  3084  091E  00A5               	movwf	___fladd@a+1
  3085  091F  0834               	movf	___flsub@a,w
  3086  0920  00A4               	movwf	___fladd@a
  3087  0921  120A  118A  2387  120A  158A  	fcall	___fladd
  3088  0926  1283               	bcf	3,5	;RP0=0, select bank0
  3089  0927  1303               	bcf	3,6	;RP1=0, select bank0
  3090  0928  0823               	movf	?___fladd+3,w
  3091  0929  00B7               	movwf	?___flsub+3
  3092  092A  0822               	movf	?___fladd+2,w
  3093  092B  00B6               	movwf	?___flsub+2
  3094  092C  0821               	movf	?___fladd+1,w
  3095  092D  00B5               	movwf	?___flsub+1
  3096  092E  0820               	movf	?___fladd,w
  3097  092F  00B4               	movwf	?___flsub
  3098  0930                     l643:
  3099  0930  0008               	return
  3100  0931                     __end_of___flsub:
  3101                           
  3102                           	psect	text9
  3103  0387                     __ptext9:	
  3104 ;; *************** function ___fladd *****************
  3105 ;; Defined at:
  3106 ;;		line 10 in file "C:\Program Files\Microchip\xc8\v2.31\pic\sources\c90\common\sprcadd.c"
  3107 ;; Parameters:    Size  Location     Type
  3108 ;;  b               4    0[BANK0 ] long 
  3109 ;;  a               4    4[BANK0 ] long 
  3110 ;; Auto vars:     Size  Location     Type
  3111 ;;  grs             1   19[BANK0 ] unsigned char 
  3112 ;;  bexp            1   18[BANK0 ] unsigned char 
  3113 ;;  aexp            1   17[BANK0 ] unsigned char 
  3114 ;;  signs           1   16[BANK0 ] unsigned char 
  3115 ;; Return value:  Size  Location     Type
  3116 ;;                  4    0[BANK0 ] unsigned char 
  3117 ;; Registers used:
  3118 ;;		wreg, status,2, status,0, btemp+1
  3119 ;; Tracked objects:
  3120 ;;		On entry : 0/0
  3121 ;;		On exit  : 0/0
  3122 ;;		Unchanged: 0/0
  3123 ;; Data sizes:     COMMON   BANK0   BANK1   BANK3   BANK2
  3124 ;;      Params:         0       8       0       0       0
  3125 ;;      Locals:         0       4       0       0       0
  3126 ;;      Temps:          0       8       0       0       0
  3127 ;;      Totals:         0      20       0       0       0
  3128 ;;Total ram usage:       20 bytes
  3129 ;; Hardware stack levels used:    1
  3130 ;; Hardware stack levels required when called:    1
  3131 ;; This function calls:
  3132 ;;		Nothing
  3133 ;; This function is called by:
  3134 ;;		___flsub
  3135 ;; This function uses a non-reentrant model
  3136 ;;
  3137                           
  3138                           
  3139                           ;psect for function ___fladd
  3140  0387                     ___fladd:
  3141  0387                     l1847:	
  3142                           ;incstack = 0
  3143                           ; Regs used in ___fladd: [wreg+status,2+status,0+btemp+1]
  3144                           
  3145  0387  1283               	bcf	3,5	;RP0=0, select bank0
  3146  0388  1303               	bcf	3,6	;RP1=0, select bank0
  3147  0389  0823               	movf	___fladd@b+3,w
  3148  038A  3980               	andlw	128
  3149  038B  00A8               	movwf	??___fladd
  3150  038C  0828               	movf	??___fladd,w
  3151  038D  00B0               	movwf	___fladd@signs
  3152  038E                     l1849:
  3153  038E  0823               	movf	___fladd@b+3,w
  3154  038F  00A8               	movwf	??___fladd
  3155  0390  0728               	addwf	??___fladd,w
  3156  0391  00A9               	movwf	??___fladd+1
  3157  0392  0829               	movf	??___fladd+1,w
  3158  0393  00B2               	movwf	___fladd@bexp
  3159  0394                     l1851:
  3160  0394  1FA2               	btfss	___fladd@b+2,7
  3161  0395  2B97               	goto	u2001
  3162  0396  2B98               	goto	u2000
  3163  0397                     u2001:
  3164  0397  2B99               	goto	l1855
  3165  0398                     u2000:
  3166  0398                     l1853:
  3167  0398  1432               	bsf	___fladd@bexp,0
  3168  0399                     l1855:
  3169  0399  0832               	movf	___fladd@bexp,w
  3170  039A  1903               	btfsc	3,2
  3171  039B  2B9D               	goto	u2011
  3172  039C  2B9E               	goto	u2010
  3173  039D                     u2011:
  3174  039D  2BAE               	goto	l1865
  3175  039E                     u2010:
  3176  039E                     l1857:
  3177  039E  0A32               	incf	___fladd@bexp,w
  3178  039F  1D03               	btfss	3,2
  3179  03A0  2BA2               	goto	u2021
  3180  03A1  2BA3               	goto	u2020
  3181  03A2                     u2021:
  3182  03A2  2BAB               	goto	l1861
  3183  03A3                     u2020:
  3184  03A3                     l1859:
  3185  03A3  3000               	movlw	0
  3186  03A4  00A3               	movwf	___fladd@b+3
  3187  03A5  3000               	movlw	0
  3188  03A6  00A2               	movwf	___fladd@b+2
  3189  03A7  3000               	movlw	0
  3190  03A8  00A1               	movwf	___fladd@b+1
  3191  03A9  3000               	movlw	0
  3192  03AA  00A0               	movwf	___fladd@b
  3193  03AB                     l1861:
  3194  03AB  17A2               	bsf	___fladd@b+2,7
  3195  03AC                     l1863:
  3196  03AC  01A3               	clrf	___fladd@b+3
  3197  03AD  2BB6               	goto	l1867
  3198  03AE                     l1865:
  3199  03AE  3000               	movlw	0
  3200  03AF  00A3               	movwf	___fladd@b+3
  3201  03B0  3000               	movlw	0
  3202  03B1  00A2               	movwf	___fladd@b+2
  3203  03B2  3000               	movlw	0
  3204  03B3  00A1               	movwf	___fladd@b+1
  3205  03B4  3000               	movlw	0
  3206  03B5  00A0               	movwf	___fladd@b
  3207  03B6                     l1867:
  3208  03B6  0827               	movf	___fladd@a+3,w
  3209  03B7  3980               	andlw	128
  3210  03B8  00A8               	movwf	??___fladd
  3211  03B9  0828               	movf	??___fladd,w
  3212  03BA  00B1               	movwf	___fladd@aexp
  3213  03BB                     l1869:
  3214  03BB  0831               	movf	___fladd@aexp,w
  3215  03BC  0630               	xorwf	___fladd@signs,w
  3216  03BD  1903               	skipnz
  3217  03BE  2BC0               	goto	u2031
  3218  03BF  2BC1               	goto	u2030
  3219  03C0                     u2031:
  3220  03C0  2BC2               	goto	l1873
  3221  03C1                     u2030:
  3222  03C1                     l1871:
  3223  03C1  1730               	bsf	___fladd@signs,6
  3224  03C2                     l1873:
  3225  03C2  0827               	movf	___fladd@a+3,w
  3226  03C3  00A8               	movwf	??___fladd
  3227  03C4  0728               	addwf	??___fladd,w
  3228  03C5  00A9               	movwf	??___fladd+1
  3229  03C6  0829               	movf	??___fladd+1,w
  3230  03C7  00B1               	movwf	___fladd@aexp
  3231  03C8                     l1875:
  3232  03C8  1FA6               	btfss	___fladd@a+2,7
  3233  03C9  2BCB               	goto	u2041
  3234  03CA  2BCC               	goto	u2040
  3235  03CB                     u2041:
  3236  03CB  2BCD               	goto	l1879
  3237  03CC                     u2040:
  3238  03CC                     l1877:
  3239  03CC  1431               	bsf	___fladd@aexp,0
  3240  03CD                     l1879:
  3241  03CD  0831               	movf	___fladd@aexp,w
  3242  03CE  1903               	btfsc	3,2
  3243  03CF  2BD1               	goto	u2051
  3244  03D0  2BD2               	goto	u2050
  3245  03D1                     u2051:
  3246  03D1  2BE2               	goto	l1889
  3247  03D2                     u2050:
  3248  03D2                     l1881:
  3249  03D2  0A31               	incf	___fladd@aexp,w
  3250  03D3  1D03               	btfss	3,2
  3251  03D4  2BD6               	goto	u2061
  3252  03D5  2BD7               	goto	u2060
  3253  03D6                     u2061:
  3254  03D6  2BDF               	goto	l1885
  3255  03D7                     u2060:
  3256  03D7                     l1883:
  3257  03D7  3000               	movlw	0
  3258  03D8  00A7               	movwf	___fladd@a+3
  3259  03D9  3000               	movlw	0
  3260  03DA  00A6               	movwf	___fladd@a+2
  3261  03DB  3000               	movlw	0
  3262  03DC  00A5               	movwf	___fladd@a+1
  3263  03DD  3000               	movlw	0
  3264  03DE  00A4               	movwf	___fladd@a
  3265  03DF                     l1885:
  3266  03DF  17A6               	bsf	___fladd@a+2,7
  3267  03E0                     l1887:
  3268  03E0  01A7               	clrf	___fladd@a+3
  3269  03E1  2BEA               	goto	l597
  3270  03E2                     l1889:
  3271  03E2  3000               	movlw	0
  3272  03E3  00A7               	movwf	___fladd@a+3
  3273  03E4  3000               	movlw	0
  3274  03E5  00A6               	movwf	___fladd@a+2
  3275  03E6  3000               	movlw	0
  3276  03E7  00A5               	movwf	___fladd@a+1
  3277  03E8  3000               	movlw	0
  3278  03E9  00A4               	movwf	___fladd@a
  3279  03EA                     l597:
  3280  03EA  0832               	movf	___fladd@bexp,w
  3281  03EB  0231               	subwf	___fladd@aexp,w
  3282  03EC  1803               	skipnc
  3283  03ED  2BEF               	goto	u2071
  3284  03EE  2BF0               	goto	u2070
  3285  03EF                     u2071:
  3286  03EF  2C34               	goto	l1925
  3287  03F0                     u2070:
  3288  03F0                     l1891:
  3289  03F0  1F30               	btfss	___fladd@signs,6
  3290  03F1  2BF3               	goto	u2081
  3291  03F2  2BF4               	goto	u2080
  3292  03F3                     u2081:
  3293  03F3  2BF8               	goto	l1895
  3294  03F4                     u2080:
  3295  03F4                     l1893:
  3296  03F4  3080               	movlw	128
  3297  03F5  00A8               	movwf	??___fladd
  3298  03F6  0828               	movf	??___fladd,w
  3299  03F7  06B0               	xorwf	___fladd@signs,f
  3300  03F8                     l1895:
  3301  03F8  0832               	movf	___fladd@bexp,w
  3302  03F9  00A8               	movwf	??___fladd
  3303  03FA  0828               	movf	??___fladd,w
  3304  03FB  00B3               	movwf	___fladd@grs
  3305  03FC                     l1897:
  3306  03FC  0831               	movf	___fladd@aexp,w
  3307  03FD  00A8               	movwf	??___fladd
  3308  03FE  0828               	movf	??___fladd,w
  3309  03FF  00B2               	movwf	___fladd@bexp
  3310  0400                     l1899:
  3311  0400  0833               	movf	___fladd@grs,w
  3312  0401  00A8               	movwf	??___fladd
  3313  0402  0828               	movf	??___fladd,w
  3314  0403  00B1               	movwf	___fladd@aexp
  3315  0404                     l1901:
  3316  0404  0820               	movf	___fladd@b,w
  3317  0405  00A8               	movwf	??___fladd
  3318  0406  0828               	movf	??___fladd,w
  3319  0407  00B3               	movwf	___fladd@grs
  3320  0408                     l1903:
  3321  0408  0824               	movf	___fladd@a,w
  3322  0409  00A8               	movwf	??___fladd
  3323  040A  0828               	movf	??___fladd,w
  3324  040B  00A0               	movwf	___fladd@b
  3325  040C                     l1905:
  3326  040C  0833               	movf	___fladd@grs,w
  3327  040D  00A8               	movwf	??___fladd
  3328  040E  0828               	movf	??___fladd,w
  3329  040F  00A4               	movwf	___fladd@a
  3330  0410                     l1907:
  3331  0410  0821               	movf	___fladd@b+1,w
  3332  0411  00A8               	movwf	??___fladd
  3333  0412  0828               	movf	??___fladd,w
  3334  0413  00B3               	movwf	___fladd@grs
  3335  0414                     l1909:
  3336  0414  0825               	movf	___fladd@a+1,w
  3337  0415  00A8               	movwf	??___fladd
  3338  0416  0828               	movf	??___fladd,w
  3339  0417  00A1               	movwf	___fladd@b+1
  3340  0418                     l1911:
  3341  0418  0833               	movf	___fladd@grs,w
  3342  0419  00A8               	movwf	??___fladd
  3343  041A  0828               	movf	??___fladd,w
  3344  041B  00A5               	movwf	___fladd@a+1
  3345  041C                     l1913:
  3346  041C  0822               	movf	___fladd@b+2,w
  3347  041D  00A8               	movwf	??___fladd
  3348  041E  0828               	movf	??___fladd,w
  3349  041F  00B3               	movwf	___fladd@grs
  3350  0420                     l1915:
  3351  0420  0826               	movf	___fladd@a+2,w
  3352  0421  00A8               	movwf	??___fladd
  3353  0422  0828               	movf	??___fladd,w
  3354  0423  00A2               	movwf	___fladd@b+2
  3355  0424                     l1917:
  3356  0424  0833               	movf	___fladd@grs,w
  3357  0425  00A8               	movwf	??___fladd
  3358  0426  0828               	movf	??___fladd,w
  3359  0427  00A6               	movwf	___fladd@a+2
  3360  0428                     l1919:
  3361  0428  0823               	movf	___fladd@b+3,w
  3362  0429  00A8               	movwf	??___fladd
  3363  042A  0828               	movf	??___fladd,w
  3364  042B  00B3               	movwf	___fladd@grs
  3365  042C                     l1921:
  3366  042C  0827               	movf	___fladd@a+3,w
  3367  042D  00A8               	movwf	??___fladd
  3368  042E  0828               	movf	??___fladd,w
  3369  042F  00A3               	movwf	___fladd@b+3
  3370  0430                     l1923:
  3371  0430  0833               	movf	___fladd@grs,w
  3372  0431  00A8               	movwf	??___fladd
  3373  0432  0828               	movf	??___fladd,w
  3374  0433  00A7               	movwf	___fladd@a+3
  3375  0434                     l1925:
  3376  0434  01B3               	clrf	___fladd@grs
  3377  0435                     l1927:
  3378  0435  0831               	movf	___fladd@aexp,w
  3379  0436  00A8               	movwf	??___fladd
  3380  0437  01A9               	clrf	??___fladd+1
  3381  0438  0829               	movf	??___fladd+1,w
  3382  0439  00AB               	movwf	??___fladd+3
  3383  043A  0832               	movf	___fladd@bexp,w
  3384  043B  0228               	subwf	??___fladd,w
  3385  043C  00AA               	movwf	??___fladd+2
  3386  043D  1C03               	skipc
  3387  043E  03AB               	decf	??___fladd+3,f
  3388  043F  082B               	movf	??___fladd+3,w
  3389  0440  3A80               	xorlw	128
  3390  0441  00FF               	movwf	btemp+1
  3391  0442  3080               	movlw	128
  3392  0443  027F               	subwf	btemp+1,w
  3393  0444  1D03               	skipz
  3394  0445  2C48               	goto	u2095
  3395  0446  301A               	movlw	26
  3396  0447  022A               	subwf	??___fladd+2,w
  3397  0448                     u2095:
  3398  0448  1C03               	skipc
  3399  0449  2C4B               	goto	u2091
  3400  044A  2C4C               	goto	u2090
  3401  044B                     u2091:
  3402  044B  2C89               	goto	l1943
  3403  044C                     u2090:
  3404  044C                     l1929:
  3405  044C  1283               	bcf	3,5	;RP0=0, select bank0
  3406  044D  1303               	bcf	3,6	;RP1=0, select bank0
  3407  044E  0823               	movf	___fladd@b+3,w
  3408  044F  0422               	iorwf	___fladd@b+2,w
  3409  0450  0421               	iorwf	___fladd@b+1,w
  3410  0451  0420               	iorwf	___fladd@b,w
  3411  0452  1D03               	skipz
  3412  0453  2C55               	goto	u2101
  3413  0454  2C57               	goto	u2100
  3414  0455                     u2101:
  3415  0455  3001               	movlw	1
  3416  0456  2C58               	goto	u2110
  3417  0457                     u2100:
  3418  0457  3000               	movlw	0
  3419  0458                     u2110:
  3420  0458  00A8               	movwf	??___fladd
  3421  0459  0828               	movf	??___fladd,w
  3422  045A  00B3               	movwf	___fladd@grs
  3423  045B  3000               	movlw	0
  3424  045C  00A3               	movwf	___fladd@b+3
  3425  045D  3000               	movlw	0
  3426  045E  00A2               	movwf	___fladd@b+2
  3427  045F  3000               	movlw	0
  3428  0460  00A1               	movwf	___fladd@b+1
  3429  0461  3000               	movlw	0
  3430  0462  00A0               	movwf	___fladd@b
  3431  0463  0831               	movf	___fladd@aexp,w
  3432  0464  00A8               	movwf	??___fladd
  3433  0465  0828               	movf	??___fladd,w
  3434  0466  00B2               	movwf	___fladd@bexp
  3435  0467  2C91               	goto	l601
  3436  0468                     l603:
  3437  0468  1C33               	btfss	___fladd@grs,0
  3438  0469  2C6B               	goto	u2121
  3439  046A  2C6C               	goto	u2120
  3440  046B                     u2121:
  3441  046B  2C75               	goto	l1933
  3442  046C                     u2120:
  3443  046C                     l1931:
  3444  046C  0833               	movf	___fladd@grs,w
  3445  046D  00A8               	movwf	??___fladd
  3446  046E  1003               	clrc
  3447  046F  0C28               	rrf	??___fladd,w
  3448  0470  3801               	iorlw	1
  3449  0471  00A9               	movwf	??___fladd+1
  3450  0472  0829               	movf	??___fladd+1,w
  3451  0473  00B3               	movwf	___fladd@grs
  3452  0474  2C77               	goto	l1935
  3453  0475                     l1933:
  3454  0475  1003               	clrc
  3455  0476  0CB3               	rrf	___fladd@grs,f
  3456  0477                     l1935:
  3457  0477  1C20               	btfss	___fladd@b,0
  3458  0478  2C7A               	goto	u2131
  3459  0479  2C7B               	goto	u2130
  3460  047A                     u2131:
  3461  047A  2C7C               	goto	l1939
  3462  047B                     u2130:
  3463  047B                     l1937:
  3464  047B  17B3               	bsf	___fladd@grs,7
  3465  047C                     l1939:
  3466  047C  3001               	movlw	1
  3467  047D  00A8               	movwf	??___fladd
  3468  047E                     u2145:
  3469  047E  0D23               	rlf	___fladd@b+3,w
  3470  047F  0CA3               	rrf	___fladd@b+3,f
  3471  0480  0CA2               	rrf	___fladd@b+2,f
  3472  0481  0CA1               	rrf	___fladd@b+1,f
  3473  0482  0CA0               	rrf	___fladd@b,f
  3474  0483  0BA8               	decfsz	??___fladd& (0+127),f
  3475  0484  2C7E               	goto	u2145
  3476  0485                     l1941:
  3477  0485  3001               	movlw	1
  3478  0486  00A8               	movwf	??___fladd
  3479  0487  0828               	movf	??___fladd,w
  3480  0488  07B2               	addwf	___fladd@bexp,f
  3481  0489                     l1943:
  3482  0489  1283               	bcf	3,5	;RP0=0, select bank0
  3483  048A  1303               	bcf	3,6	;RP1=0, select bank0
  3484  048B  0831               	movf	___fladd@aexp,w
  3485  048C  0232               	subwf	___fladd@bexp,w
  3486  048D  1C03               	skipc
  3487  048E  2C90               	goto	u2151
  3488  048F  2C91               	goto	u2150
  3489  0490                     u2151:
  3490  0490  2C68               	goto	l603
  3491  0491                     u2150:
  3492  0491                     l601:
  3493  0491  1B30               	btfsc	___fladd@signs,6
  3494  0492  2C94               	goto	u2161
  3495  0493  2C95               	goto	u2160
  3496  0494                     u2161:
  3497  0494  2CE0               	goto	l1969
  3498  0495                     u2160:
  3499  0495                     l1945:
  3500  0495  0832               	movf	___fladd@bexp,w
  3501  0496  1D03               	btfss	3,2
  3502  0497  2C99               	goto	u2171
  3503  0498  2C9A               	goto	u2170
  3504  0499                     u2171:
  3505  0499  2CA3               	goto	l1951
  3506  049A                     u2170:
  3507  049A                     l1947:
  3508  049A  3000               	movlw	0
  3509  049B  00A3               	movwf	?___fladd+3
  3510  049C  3000               	movlw	0
  3511  049D  00A2               	movwf	?___fladd+2
  3512  049E  3000               	movlw	0
  3513  049F  00A1               	movwf	?___fladd+1
  3514  04A0  3000               	movlw	0
  3515  04A1  00A0               	movwf	?___fladd
  3516  04A2  2E0E               	goto	l610
  3517  04A3                     l1951:
  3518  04A3  0824               	movf	___fladd@a,w
  3519  04A4  07A0               	addwf	___fladd@b,f
  3520  04A5  0825               	movf	___fladd@a+1,w
  3521  04A6  1103               	clrz
  3522  04A7  1803               	skipnc
  3523  04A8  3E01               	addlw	1
  3524  04A9  1903               	skipnz
  3525  04AA  2CAC               	goto	u2181
  3526  04AB  07A1               	addwf	___fladd@b+1,f
  3527  04AC                     u2181:
  3528  04AC  0826               	movf	___fladd@a+2,w
  3529  04AD  1103               	clrz
  3530  04AE  1803               	skipnc
  3531  04AF  3E01               	addlw	1
  3532  04B0  1903               	skipnz
  3533  04B1  2CB3               	goto	u2182
  3534  04B2  07A2               	addwf	___fladd@b+2,f
  3535  04B3                     u2182:
  3536  04B3  0827               	movf	___fladd@a+3,w
  3537  04B4  1103               	clrz
  3538  04B5  1803               	skipnc
  3539  04B6  3E01               	addlw	1
  3540  04B7  1903               	skipnz
  3541  04B8  2CBA               	goto	u2183
  3542  04B9  07A3               	addwf	___fladd@b+3,f
  3543  04BA                     u2183:
  3544  04BA                     l1953:
  3545  04BA  1C23               	btfss	___fladd@b+3,0
  3546  04BB  2CBD               	goto	u2191
  3547  04BC  2CBE               	goto	u2190
  3548  04BD                     u2191:
  3549  04BD  2D94               	goto	l2003
  3550  04BE                     u2190:
  3551  04BE                     l1955:
  3552  04BE  1C33               	btfss	___fladd@grs,0
  3553  04BF  2CC1               	goto	u2201
  3554  04C0  2CC2               	goto	u2200
  3555  04C1                     u2201:
  3556  04C1  2CCB               	goto	l1959
  3557  04C2                     u2200:
  3558  04C2                     l1957:
  3559  04C2  0833               	movf	___fladd@grs,w
  3560  04C3  00A8               	movwf	??___fladd
  3561  04C4  1003               	clrc
  3562  04C5  0C28               	rrf	??___fladd,w
  3563  04C6  3801               	iorlw	1
  3564  04C7  00A9               	movwf	??___fladd+1
  3565  04C8  0829               	movf	??___fladd+1,w
  3566  04C9  00B3               	movwf	___fladd@grs
  3567  04CA  2CCD               	goto	l1961
  3568  04CB                     l1959:
  3569  04CB  1003               	clrc
  3570  04CC  0CB3               	rrf	___fladd@grs,f
  3571  04CD                     l1961:
  3572  04CD  1C20               	btfss	___fladd@b,0
  3573  04CE  2CD0               	goto	u2211
  3574  04CF  2CD1               	goto	u2210
  3575  04D0                     u2211:
  3576  04D0  2CD2               	goto	l1965
  3577  04D1                     u2210:
  3578  04D1                     l1963:
  3579  04D1  17B3               	bsf	___fladd@grs,7
  3580  04D2                     l1965:
  3581  04D2  3001               	movlw	1
  3582  04D3  00A8               	movwf	??___fladd
  3583  04D4                     u2225:
  3584  04D4  0D23               	rlf	___fladd@b+3,w
  3585  04D5  0CA3               	rrf	___fladd@b+3,f
  3586  04D6  0CA2               	rrf	___fladd@b+2,f
  3587  04D7  0CA1               	rrf	___fladd@b+1,f
  3588  04D8  0CA0               	rrf	___fladd@b,f
  3589  04D9  0BA8               	decfsz	??___fladd& (0+127),f
  3590  04DA  2CD4               	goto	u2225
  3591  04DB                     l1967:
  3592  04DB  3001               	movlw	1
  3593  04DC  00A8               	movwf	??___fladd
  3594  04DD  0828               	movf	??___fladd,w
  3595  04DE  07B2               	addwf	___fladd@bexp,f
  3596  04DF  2D94               	goto	l2003
  3597  04E0                     l1969:
  3598  04E0  0823               	movf	___fladd@b+3,w
  3599  04E1  3A80               	xorlw	128
  3600  04E2  00FF               	movwf	btemp+1
  3601  04E3  0827               	movf	___fladd@a+3,w
  3602  04E4  3A80               	xorlw	128
  3603  04E5  027F               	subwf	btemp+1,w
  3604  04E6  1D03               	skipz
  3605  04E7  2CF2               	goto	u2233
  3606  04E8  0826               	movf	___fladd@a+2,w
  3607  04E9  0222               	subwf	___fladd@b+2,w
  3608  04EA  1D03               	skipz
  3609  04EB  2CF2               	goto	u2233
  3610  04EC  0825               	movf	___fladd@a+1,w
  3611  04ED  0221               	subwf	___fladd@b+1,w
  3612  04EE  1D03               	skipz
  3613  04EF  2CF2               	goto	u2233
  3614  04F0  0824               	movf	___fladd@a,w
  3615  04F1  0220               	subwf	___fladd@b,w
  3616  04F2                     u2233:
  3617  04F2  1803               	skipnc
  3618  04F3  2CF5               	goto	u2231
  3619  04F4  2CF6               	goto	u2230
  3620  04F5                     u2231:
  3621  04F5  2D4E               	goto	l1979
  3622  04F6                     u2230:
  3623  04F6                     l1971:
  3624  04F6  30FF               	movlw	255
  3625  04F7  00A8               	movwf	??___fladd
  3626  04F8  30FF               	movlw	255
  3627  04F9  00A9               	movwf	??___fladd+1
  3628  04FA  30FF               	movlw	255
  3629  04FB  00AA               	movwf	??___fladd+2
  3630  04FC  30FF               	movlw	255
  3631  04FD  00AB               	movwf	??___fladd+3
  3632  04FE  0824               	movf	___fladd@a,w
  3633  04FF  00AC               	movwf	??___fladd+4
  3634  0500  0825               	movf	___fladd@a+1,w
  3635  0501  00AD               	movwf	??___fladd+5
  3636  0502  0826               	movf	___fladd@a+2,w
  3637  0503  00AE               	movwf	??___fladd+6
  3638  0504  0827               	movf	___fladd@a+3,w
  3639  0505  00AF               	movwf	??___fladd+7
  3640  0506  0820               	movf	___fladd@b,w
  3641  0507  02AC               	subwf	??___fladd+4,f
  3642  0508  0821               	movf	___fladd@b+1,w
  3643  0509  1C03               	skipc
  3644  050A  0F21               	incfsz	___fladd@b+1,w
  3645  050B  2D0D               	goto	u2241
  3646  050C  2D0E               	goto	u2242
  3647  050D                     u2241:
  3648  050D  02AD               	subwf	??___fladd+5,f
  3649  050E                     u2242:
  3650  050E  0822               	movf	___fladd@b+2,w
  3651  050F  1C03               	skipc
  3652  0510  0F22               	incfsz	___fladd@b+2,w
  3653  0511  2D13               	goto	u2243
  3654  0512  2D14               	goto	u2244
  3655  0513                     u2243:
  3656  0513  02AE               	subwf	??___fladd+6,f
  3657  0514                     u2244:
  3658  0514  0823               	movf	___fladd@b+3,w
  3659  0515  1C03               	skipc
  3660  0516  0F23               	incfsz	___fladd@b+3,w
  3661  0517  2D19               	goto	u2245
  3662  0518  2D1A               	goto	u2246
  3663  0519                     u2245:
  3664  0519  02AF               	subwf	??___fladd+7,f
  3665  051A                     u2246:
  3666  051A  082C               	movf	??___fladd+4,w
  3667  051B  07A8               	addwf	??___fladd,f
  3668  051C  082D               	movf	??___fladd+5,w
  3669  051D  1803               	skipnc
  3670  051E  0F2D               	incfsz	??___fladd+5,w
  3671  051F  2D21               	goto	u2250
  3672  0520  2D22               	goto	u2251
  3673  0521                     u2250:
  3674  0521  07A9               	addwf	??___fladd+1,f
  3675  0522                     u2251:
  3676  0522  082E               	movf	??___fladd+6,w
  3677  0523  1803               	skipnc
  3678  0524  0F2E               	incfsz	??___fladd+6,w
  3679  0525  2D27               	goto	u2252
  3680  0526  2D28               	goto	u2253
  3681  0527                     u2252:
  3682  0527  07AA               	addwf	??___fladd+2,f
  3683  0528                     u2253:
  3684  0528  082F               	movf	??___fladd+7,w
  3685  0529  1803               	skipnc
  3686  052A  0A2F               	incf	??___fladd+7,w
  3687  052B  07AB               	addwf	??___fladd+3,f
  3688  052C  082B               	movf	??___fladd+3,w
  3689  052D  00A3               	movwf	___fladd@b+3
  3690  052E  082A               	movf	??___fladd+2,w
  3691  052F  00A2               	movwf	___fladd@b+2
  3692  0530  0829               	movf	??___fladd+1,w
  3693  0531  00A1               	movwf	___fladd@b+1
  3694  0532  0828               	movf	??___fladd,w
  3695  0533  00A0               	movwf	___fladd@b
  3696  0534                     l1973:
  3697  0534  3080               	movlw	128
  3698  0535  00A8               	movwf	??___fladd
  3699  0536  0828               	movf	??___fladd,w
  3700  0537  06B0               	xorwf	___fladd@signs,f
  3701  0538  09B3               	comf	___fladd@grs,f
  3702  0539  0AB3               	incf	___fladd@grs,f
  3703  053A                     l1975:
  3704  053A  0833               	movf	___fladd@grs,w
  3705  053B  1D03               	btfss	3,2
  3706  053C  2D3E               	goto	u2261
  3707  053D  2D3F               	goto	u2260
  3708  053E                     u2261:
  3709  053E  2D5C               	goto	l618
  3710  053F                     u2260:
  3711  053F                     l1977:
  3712  053F  3001               	movlw	1
  3713  0540  07A0               	addwf	___fladd@b,f
  3714  0541  3000               	movlw	0
  3715  0542  1803               	skipnc
  3716  0543  3001               	movlw	1
  3717  0544  07A1               	addwf	___fladd@b+1,f
  3718  0545  3000               	movlw	0
  3719  0546  1803               	skipnc
  3720  0547  3001               	movlw	1
  3721  0548  07A2               	addwf	___fladd@b+2,f
  3722  0549  3000               	movlw	0
  3723  054A  1803               	skipnc
  3724  054B  3001               	movlw	1
  3725  054C  07A3               	addwf	___fladd@b+3,f
  3726  054D  2D5C               	goto	l618
  3727  054E                     l1979:
  3728  054E  0824               	movf	___fladd@a,w
  3729  054F  02A0               	subwf	___fladd@b,f
  3730  0550  0825               	movf	___fladd@a+1,w
  3731  0551  1C03               	skipc
  3732  0552  0F25               	incfsz	___fladd@a+1,w
  3733  0553  02A1               	subwf	___fladd@b+1,f
  3734  0554  0826               	movf	___fladd@a+2,w
  3735  0555  1C03               	skipc
  3736  0556  0F26               	incfsz	___fladd@a+2,w
  3737  0557  02A2               	subwf	___fladd@b+2,f
  3738  0558  0827               	movf	___fladd@a+3,w
  3739  0559  1C03               	skipc
  3740  055A  0F27               	incfsz	___fladd@a+3,w
  3741  055B  02A3               	subwf	___fladd@b+3,f
  3742  055C                     l618:
  3743  055C  0823               	movf	___fladd@b+3,w
  3744  055D  0422               	iorwf	___fladd@b+2,w
  3745  055E  0421               	iorwf	___fladd@b+1,w
  3746  055F  0420               	iorwf	___fladd@b,w
  3747  0560  1D03               	skipz
  3748  0561  2D63               	goto	u2271
  3749  0562  2D64               	goto	u2270
  3750  0563                     u2271:
  3751  0563  2D90               	goto	l2001
  3752  0564                     u2270:
  3753  0564                     l1981:
  3754  0564  0833               	movf	___fladd@grs,w
  3755  0565  1D03               	btfss	3,2
  3756  0566  2D68               	goto	u2281
  3757  0567  2D69               	goto	u2280
  3758  0568                     u2281:
  3759  0568  2D90               	goto	l2001
  3760  0569                     u2280:
  3761  0569                     l1983:
  3762  0569  3000               	movlw	0
  3763  056A  00A3               	movwf	?___fladd+3
  3764  056B  3000               	movlw	0
  3765  056C  00A2               	movwf	?___fladd+2
  3766  056D  3000               	movlw	0
  3767  056E  00A1               	movwf	?___fladd+1
  3768  056F  3000               	movlw	0
  3769  0570  00A0               	movwf	?___fladd
  3770  0571  2E0E               	goto	l610
  3771  0572                     l1987:
  3772  0572  3001               	movlw	1
  3773  0573  00A8               	movwf	??___fladd
  3774  0574                     u2295:
  3775  0574  1003               	clrc
  3776  0575  0DA0               	rlf	___fladd@b,f
  3777  0576  0DA1               	rlf	___fladd@b+1,f
  3778  0577  0DA2               	rlf	___fladd@b+2,f
  3779  0578  0DA3               	rlf	___fladd@b+3,f
  3780  0579  0BA8               	decfsz	??___fladd,f
  3781  057A  2D74               	goto	u2295
  3782  057B                     l1989:
  3783  057B  1FB3               	btfss	___fladd@grs,7
  3784  057C  2D7E               	goto	u2301
  3785  057D  2D7F               	goto	u2300
  3786  057E                     u2301:
  3787  057E  2D80               	goto	l622
  3788  057F                     u2300:
  3789  057F                     l1991:
  3790  057F  1420               	bsf	___fladd@b,0
  3791  0580                     l622:
  3792  0580  1C33               	btfss	___fladd@grs,0
  3793  0581  2D83               	goto	u2311
  3794  0582  2D84               	goto	u2310
  3795  0583                     u2311:
  3796  0583  2D87               	goto	l1995
  3797  0584                     u2310:
  3798  0584                     l1993:
  3799  0584  1403               	setc
  3800  0585  0DB3               	rlf	___fladd@grs,f
  3801  0586  2D89               	goto	l1997
  3802  0587                     l1995:
  3803  0587  1003               	clrc
  3804  0588  0DB3               	rlf	___fladd@grs,f
  3805  0589                     l1997:
  3806  0589  0832               	movf	___fladd@bexp,w
  3807  058A  1903               	btfsc	3,2
  3808  058B  2D8D               	goto	u2321
  3809  058C  2D8E               	goto	u2320
  3810  058D                     u2321:
  3811  058D  2D90               	goto	l2001
  3812  058E                     u2320:
  3813  058E                     l1999:
  3814  058E  3001               	movlw	1
  3815  058F  02B2               	subwf	___fladd@bexp,f
  3816  0590                     l2001:
  3817  0590  1FA2               	btfss	___fladd@b+2,7
  3818  0591  2D93               	goto	u2331
  3819  0592  2D94               	goto	u2330
  3820  0593                     u2331:
  3821  0593  2D72               	goto	l1987
  3822  0594                     u2330:
  3823  0594                     l2003:
  3824  0594  01B1               	clrf	___fladd@aexp
  3825  0595                     l2005:
  3826  0595  1FB3               	btfss	___fladd@grs,7
  3827  0596  2D98               	goto	u2341
  3828  0597  2D99               	goto	u2340
  3829  0598                     u2341:
  3830  0598  2DA7               	goto	l2013
  3831  0599                     u2340:
  3832  0599                     l2007:
  3833  0599  0833               	movf	___fladd@grs,w
  3834  059A  397F               	andlw	127
  3835  059B  1903               	btfsc	3,2
  3836  059C  2D9E               	goto	u2351
  3837  059D  2D9F               	goto	u2350
  3838  059E                     u2351:
  3839  059E  2DA2               	goto	l628
  3840  059F                     u2350:
  3841  059F                     l2009:
  3842  059F  01B1               	clrf	___fladd@aexp
  3843  05A0  0AB1               	incf	___fladd@aexp,f
  3844  05A1  2DA7               	goto	l2013
  3845  05A2                     l628:
  3846  05A2  1C20               	btfss	___fladd@b,0
  3847  05A3  2DA5               	goto	u2361
  3848  05A4  2DA6               	goto	u2360
  3849  05A5                     u2361:
  3850  05A5  2DA7               	goto	l2013
  3851  05A6                     u2360:
  3852  05A6  2D9F               	goto	l2009
  3853  05A7                     l2013:
  3854  05A7  0831               	movf	___fladd@aexp,w
  3855  05A8  1903               	btfsc	3,2
  3856  05A9  2DAB               	goto	u2371
  3857  05AA  2DAC               	goto	u2370
  3858  05AB                     u2371:
  3859  05AB  2DE0               	goto	l631
  3860  05AC                     u2370:
  3861  05AC                     l2015:
  3862  05AC  3001               	movlw	1
  3863  05AD  07A0               	addwf	___fladd@b,f
  3864  05AE  3000               	movlw	0
  3865  05AF  1803               	skipnc
  3866  05B0  3001               	movlw	1
  3867  05B1  07A1               	addwf	___fladd@b+1,f
  3868  05B2  3000               	movlw	0
  3869  05B3  1803               	skipnc
  3870  05B4  3001               	movlw	1
  3871  05B5  07A2               	addwf	___fladd@b+2,f
  3872  05B6  3000               	movlw	0
  3873  05B7  1803               	skipnc
  3874  05B8  3001               	movlw	1
  3875  05B9  07A3               	addwf	___fladd@b+3,f
  3876  05BA                     l2017:
  3877  05BA  1C23               	btfss	___fladd@b+3,0
  3878  05BB  2DBD               	goto	u2381
  3879  05BC  2DBE               	goto	u2380
  3880  05BD                     u2381:
  3881  05BD  2DE0               	goto	l631
  3882  05BE                     u2380:
  3883  05BE                     l2019:
  3884  05BE  0820               	movf	___fladd@b,w
  3885  05BF  00A8               	movwf	??___fladd
  3886  05C0  0821               	movf	___fladd@b+1,w
  3887  05C1  00A9               	movwf	??___fladd+1
  3888  05C2  0822               	movf	___fladd@b+2,w
  3889  05C3  00AA               	movwf	??___fladd+2
  3890  05C4  0823               	movf	___fladd@b+3,w
  3891  05C5  00AB               	movwf	??___fladd+3
  3892  05C6  3001               	movlw	1
  3893  05C7  00AC               	movwf	??___fladd+4
  3894  05C8                     u2395:
  3895  05C8  0D2B               	rlf	??___fladd+3,w
  3896  05C9  0CAB               	rrf	??___fladd+3,f
  3897  05CA  0CAA               	rrf	??___fladd+2,f
  3898  05CB  0CA9               	rrf	??___fladd+1,f
  3899  05CC  0CA8               	rrf	??___fladd,f
  3900  05CD                     u2390:
  3901  05CD  0BAC               	decfsz	??___fladd+4,f
  3902  05CE  2DC8               	goto	u2395
  3903  05CF  082B               	movf	??___fladd+3,w
  3904  05D0  00A3               	movwf	___fladd@b+3
  3905  05D1  082A               	movf	??___fladd+2,w
  3906  05D2  00A2               	movwf	___fladd@b+2
  3907  05D3  0829               	movf	??___fladd+1,w
  3908  05D4  00A1               	movwf	___fladd@b+1
  3909  05D5  0828               	movf	??___fladd,w
  3910  05D6  00A0               	movwf	___fladd@b
  3911  05D7  0A32               	incf	___fladd@bexp,w
  3912  05D8  1903               	btfsc	3,2
  3913  05D9  2DDB               	goto	u2401
  3914  05DA  2DDC               	goto	u2400
  3915  05DB                     u2401:
  3916  05DB  2DE0               	goto	l631
  3917  05DC                     u2400:
  3918  05DC                     l2021:
  3919  05DC  3001               	movlw	1
  3920  05DD  00A8               	movwf	??___fladd
  3921  05DE  0828               	movf	??___fladd,w
  3922  05DF  07B2               	addwf	___fladd@bexp,f
  3923  05E0                     l631:
  3924  05E0  0A32               	incf	___fladd@bexp,w
  3925  05E1  1903               	btfsc	3,2
  3926  05E2  2DE4               	goto	u2411
  3927  05E3  2DE5               	goto	u2410
  3928  05E4                     u2411:
  3929  05E4  2DEA               	goto	l2025
  3930  05E5                     u2410:
  3931  05E5                     l2023:
  3932  05E5  0832               	movf	___fladd@bexp,w
  3933  05E6  1D03               	btfss	3,2
  3934  05E7  2DE9               	goto	u2421
  3935  05E8  2DEA               	goto	u2420
  3936  05E9                     u2421:
  3937  05E9  2DF8               	goto	l2031
  3938  05EA                     u2420:
  3939  05EA                     l2025:
  3940  05EA  3000               	movlw	0
  3941  05EB  00A3               	movwf	___fladd@b+3
  3942  05EC  3000               	movlw	0
  3943  05ED  00A2               	movwf	___fladd@b+2
  3944  05EE  3000               	movlw	0
  3945  05EF  00A1               	movwf	___fladd@b+1
  3946  05F0  3000               	movlw	0
  3947  05F1  00A0               	movwf	___fladd@b
  3948  05F2                     l2027:
  3949  05F2  0832               	movf	___fladd@bexp,w
  3950  05F3  1D03               	btfss	3,2
  3951  05F4  2DF6               	goto	u2431
  3952  05F5  2DF7               	goto	u2430
  3953  05F6                     u2431:
  3954  05F6  2DF8               	goto	l2031
  3955  05F7                     u2430:
  3956  05F7                     l2029:
  3957  05F7  01B0               	clrf	___fladd@signs
  3958  05F8                     l2031:
  3959  05F8  1C32               	btfss	___fladd@bexp,0
  3960  05F9  2DFB               	goto	u2441
  3961  05FA  2DFC               	goto	u2440
  3962  05FB                     u2441:
  3963  05FB  2DFE               	goto	l2035
  3964  05FC                     u2440:
  3965  05FC                     l2033:
  3966  05FC  17A2               	bsf	___fladd@b+2,7
  3967  05FD  2E02               	goto	l639
  3968  05FE                     l2035:
  3969  05FE  307F               	movlw	127
  3970  05FF  00A8               	movwf	??___fladd
  3971  0600  0828               	movf	??___fladd,w
  3972  0601  05A2               	andwf	___fladd@b+2,f
  3973  0602                     l639:
  3974  0602  0832               	movf	___fladd@bexp,w
  3975  0603  00A8               	movwf	??___fladd
  3976  0604  1003               	clrc
  3977  0605  0C28               	rrf	??___fladd,w
  3978  0606  00A9               	movwf	??___fladd+1
  3979  0607  0829               	movf	??___fladd+1,w
  3980  0608  00A3               	movwf	___fladd@b+3
  3981  0609                     l2037:
  3982  0609  1FB0               	btfss	___fladd@signs,7
  3983  060A  2E0C               	goto	u2451
  3984  060B  2E0D               	goto	u2450
  3985  060C                     u2451:
  3986  060C  2E0E               	goto	l640
  3987  060D                     u2450:
  3988  060D                     l2039:
  3989  060D  17A3               	bsf	___fladd@b+3,7
  3990  060E                     l640:
  3991  060E                     l610:
  3992  060E  0008               	return
  3993  060F                     __end_of___fladd:
  3994                           
  3995                           	psect	text10
  3996  08E0                     __ptext10:	
  3997 ;; *************** function ___flneg *****************
  3998 ;; Defined at:
  3999 ;;		line 15 in file "C:\Program Files\Microchip\xc8\v2.31\pic\sources\c90\common\flneg.c"
  4000 ;; Parameters:    Size  Location     Type
  4001 ;;  f1              4    0[BANK0 ] unsigned char 
  4002 ;; Auto vars:     Size  Location     Type
  4003 ;;		None
  4004 ;; Return value:  Size  Location     Type
  4005 ;;                  4    0[BANK0 ] unsigned char 
  4006 ;; Registers used:
  4007 ;;		wreg
  4008 ;; Tracked objects:
  4009 ;;		On entry : 0/0
  4010 ;;		On exit  : 0/0
  4011 ;;		Unchanged: 0/0
  4012 ;; Data sizes:     COMMON   BANK0   BANK1   BANK3   BANK2
  4013 ;;      Params:         0       4       0       0       0
  4014 ;;      Locals:         0       0       0       0       0
  4015 ;;      Temps:          0       0       0       0       0
  4016 ;;      Totals:         0       4       0       0       0
  4017 ;;Total ram usage:        4 bytes
  4018 ;; Hardware stack levels used:    1
  4019 ;; Hardware stack levels required when called:    1
  4020 ;; This function calls:
  4021 ;;		Nothing
  4022 ;; This function is called by:
  4023 ;;		_ftoa
  4024 ;; This function uses a non-reentrant model
  4025 ;;
  4026                           
  4027                           
  4028                           ;psect for function ___flneg
  4029  08E0                     ___flneg:
  4030  08E0                     l2107:	
  4031                           ;incstack = 0
  4032                           ; Regs used in ___flneg: [wreg]
  4033                           
  4034  08E0  1283               	bcf	3,5	;RP0=0, select bank0
  4035  08E1  1303               	bcf	3,6	;RP1=0, select bank0
  4036  08E2  0823               	movf	___flneg@f1+3,w
  4037  08E3  0422               	iorwf	___flneg@f1+2,w
  4038  08E4  0421               	iorwf	___flneg@f1+1,w
  4039  08E5  0420               	iorwf	___flneg@f1,w
  4040  08E6  1903               	skipnz
  4041  08E7  28E9               	goto	u2621
  4042  08E8  28EA               	goto	u2620
  4043  08E9                     u2621:
  4044  08E9  28EC               	goto	l2111
  4045  08EA                     u2620:
  4046  08EA                     l2109:
  4047  08EA  3080               	movlw	128
  4048  08EB  06A3               	xorwf	___flneg@f1+3,f
  4049  08EC                     l2111:
  4050  08EC                     l486:
  4051  08EC  0008               	return
  4052  08ED                     __end_of___flneg:
  4053                           
  4054                           	psect	text11
  4055  0026                     __ptext11:	
  4056 ;; *************** function ___flmul *****************
  4057 ;; Defined at:
  4058 ;;		line 8 in file "C:\Program Files\Microchip\xc8\v2.31\pic\sources\c90\common\sprcmul.c"
  4059 ;; Parameters:    Size  Location     Type
  4060 ;;  b               4   14[BANK0 ] unsigned char 
  4061 ;;  a               4   18[BANK0 ] unsigned char 
  4062 ;; Auto vars:     Size  Location     Type
  4063 ;;  prod            4   34[BANK0 ] struct .
  4064 ;;  grs             4   28[BANK0 ] unsigned long 
  4065 ;;  temp            2   38[BANK0 ] struct .
  4066 ;;  bexp            1   33[BANK0 ] unsigned char 
  4067 ;;  aexp            1   32[BANK0 ] unsigned char 
  4068 ;;  sign            1   27[BANK0 ] unsigned char 
  4069 ;; Return value:  Size  Location     Type
  4070 ;;                  4   14[BANK0 ] unsigned char 
  4071 ;; Registers used:
  4072 ;;		wreg, status,2, status,0, btemp+1, pclath, cstack
  4073 ;; Tracked objects:
  4074 ;;		On entry : 0/0
  4075 ;;		On exit  : 0/0
  4076 ;;		Unchanged: 0/0
  4077 ;; Data sizes:     COMMON   BANK0   BANK1   BANK3   BANK2
  4078 ;;      Params:         0       8       0       0       0
  4079 ;;      Locals:         0      13       0       0       0
  4080 ;;      Temps:          0       5       0       0       0
  4081 ;;      Totals:         0      26       0       0       0
  4082 ;;Total ram usage:       26 bytes
  4083 ;; Hardware stack levels used:    1
  4084 ;; Hardware stack levels required when called:    2
  4085 ;; This function calls:
  4086 ;;		__Umul8_16
  4087 ;; This function is called by:
  4088 ;;		_main
  4089 ;;		_ftoa
  4090 ;; This function uses a non-reentrant model
  4091 ;;
  4092                           
  4093                           
  4094                           ;psect for function ___flmul
  4095  0026                     ___flmul:
  4096  0026                     l2157:	
  4097                           ;incstack = 0
  4098                           ; Regs used in ___flmul: [wreg+status,2+status,0+btemp+1+pclath+cstack]
  4099                           
  4100  0026  1283               	bcf	3,5	;RP0=0, select bank0
  4101  0027  1303               	bcf	3,6	;RP1=0, select bank0
  4102  0028  0831               	movf	___flmul@b+3,w
  4103  0029  3980               	andlw	128
  4104  002A  00B6               	movwf	??___flmul
  4105  002B  0836               	movf	??___flmul,w
  4106  002C  00BB               	movwf	___flmul@sign
  4107  002D                     l2159:
  4108  002D  0831               	movf	___flmul@b+3,w
  4109  002E  00B6               	movwf	??___flmul
  4110  002F  0736               	addwf	??___flmul,w
  4111  0030  00B7               	movwf	??___flmul+1
  4112  0031  0837               	movf	??___flmul+1,w
  4113  0032  00C1               	movwf	___flmul@bexp
  4114  0033                     l2161:
  4115  0033  1FB0               	btfss	___flmul@b+2,7
  4116  0034  2836               	goto	u2731
  4117  0035  2837               	goto	u2730
  4118  0036                     u2731:
  4119  0036  2838               	goto	l2165
  4120  0037                     u2730:
  4121  0037                     l2163:
  4122  0037  1441               	bsf	___flmul@bexp,0
  4123  0038                     l2165:
  4124  0038  0841               	movf	___flmul@bexp,w
  4125  0039  1903               	btfsc	3,2
  4126  003A  283C               	goto	u2741
  4127  003B  283D               	goto	u2740
  4128  003C                     u2741:
  4129  003C  284C               	goto	l2173
  4130  003D                     u2740:
  4131  003D                     l2167:
  4132  003D  0A41               	incf	___flmul@bexp,w
  4133  003E  1D03               	btfss	3,2
  4134  003F  2841               	goto	u2751
  4135  0040  2842               	goto	u2750
  4136  0041                     u2751:
  4137  0041  284A               	goto	l2171
  4138  0042                     u2750:
  4139  0042                     l2169:
  4140  0042  3000               	movlw	0
  4141  0043  00B1               	movwf	___flmul@b+3
  4142  0044  3000               	movlw	0
  4143  0045  00B0               	movwf	___flmul@b+2
  4144  0046  3000               	movlw	0
  4145  0047  00AF               	movwf	___flmul@b+1
  4146  0048  3000               	movlw	0
  4147  0049  00AE               	movwf	___flmul@b
  4148  004A                     l2171:
  4149  004A  17B0               	bsf	___flmul@b+2,7
  4150  004B  2854               	goto	l2175
  4151  004C                     l2173:
  4152  004C  3000               	movlw	0
  4153  004D  00B1               	movwf	___flmul@b+3
  4154  004E  3000               	movlw	0
  4155  004F  00B0               	movwf	___flmul@b+2
  4156  0050  3000               	movlw	0
  4157  0051  00AF               	movwf	___flmul@b+1
  4158  0052  3000               	movlw	0
  4159  0053  00AE               	movwf	___flmul@b
  4160  0054                     l2175:
  4161  0054  0835               	movf	___flmul@a+3,w
  4162  0055  3980               	andlw	128
  4163  0056  00B6               	movwf	??___flmul
  4164  0057  0836               	movf	??___flmul,w
  4165  0058  06BB               	xorwf	___flmul@sign,f
  4166  0059                     l2177:
  4167  0059  0835               	movf	___flmul@a+3,w
  4168  005A  00B6               	movwf	??___flmul
  4169  005B  0736               	addwf	??___flmul,w
  4170  005C  00B7               	movwf	??___flmul+1
  4171  005D  0837               	movf	??___flmul+1,w
  4172  005E  00C0               	movwf	___flmul@aexp
  4173  005F                     l2179:
  4174  005F  1FB4               	btfss	___flmul@a+2,7
  4175  0060  2862               	goto	u2761
  4176  0061  2863               	goto	u2760
  4177  0062                     u2761:
  4178  0062  2864               	goto	l2183
  4179  0063                     u2760:
  4180  0063                     l2181:
  4181  0063  1440               	bsf	___flmul@aexp,0
  4182  0064                     l2183:
  4183  0064  0840               	movf	___flmul@aexp,w
  4184  0065  1903               	btfsc	3,2
  4185  0066  2868               	goto	u2771
  4186  0067  2869               	goto	u2770
  4187  0068                     u2771:
  4188  0068  2878               	goto	l2191
  4189  0069                     u2770:
  4190  0069                     l2185:
  4191  0069  0A40               	incf	___flmul@aexp,w
  4192  006A  1D03               	btfss	3,2
  4193  006B  286D               	goto	u2781
  4194  006C  286E               	goto	u2780
  4195  006D                     u2781:
  4196  006D  2876               	goto	l2189
  4197  006E                     u2780:
  4198  006E                     l2187:
  4199  006E  3000               	movlw	0
  4200  006F  00B5               	movwf	___flmul@a+3
  4201  0070  3000               	movlw	0
  4202  0071  00B4               	movwf	___flmul@a+2
  4203  0072  3000               	movlw	0
  4204  0073  00B3               	movwf	___flmul@a+1
  4205  0074  3000               	movlw	0
  4206  0075  00B2               	movwf	___flmul@a
  4207  0076                     l2189:
  4208  0076  17B4               	bsf	___flmul@a+2,7
  4209  0077  2880               	goto	l2193
  4210  0078                     l2191:
  4211  0078  3000               	movlw	0
  4212  0079  00B5               	movwf	___flmul@a+3
  4213  007A  3000               	movlw	0
  4214  007B  00B4               	movwf	___flmul@a+2
  4215  007C  3000               	movlw	0
  4216  007D  00B3               	movwf	___flmul@a+1
  4217  007E  3000               	movlw	0
  4218  007F  00B2               	movwf	___flmul@a
  4219  0080                     l2193:
  4220  0080  0840               	movf	___flmul@aexp,w
  4221  0081  1903               	btfsc	3,2
  4222  0082  2884               	goto	u2791
  4223  0083  2885               	goto	u2790
  4224  0084                     u2791:
  4225  0084  288A               	goto	l2197
  4226  0085                     u2790:
  4227  0085                     l2195:
  4228  0085  0841               	movf	___flmul@bexp,w
  4229  0086  1D03               	btfss	3,2
  4230  0087  2889               	goto	u2801
  4231  0088  288A               	goto	u2800
  4232  0089                     u2801:
  4233  0089  2893               	goto	l2201
  4234  008A                     u2800:
  4235  008A                     l2197:
  4236  008A  3000               	movlw	0
  4237  008B  00B1               	movwf	?___flmul+3
  4238  008C  3000               	movlw	0
  4239  008D  00B0               	movwf	?___flmul+2
  4240  008E  3000               	movlw	0
  4241  008F  00AF               	movwf	?___flmul+1
  4242  0090  3000               	movlw	0
  4243  0091  00AE               	movwf	?___flmul
  4244  0092  2B86               	goto	l693
  4245  0093                     l2201:
  4246  0093  082E               	movf	___flmul@b,w
  4247  0094  00B6               	movwf	??___flmul
  4248  0095  0836               	movf	??___flmul,w
  4249  0096  00F6               	movwf	__Umul8_16@multiplicand
  4250  0097  0834               	movf	___flmul@a+2,w
  4251  0098  120A  158A  2158  120A  118A  	fcall	__Umul8_16
  4252  009D  0877               	movf	?__Umul8_16+1,w
  4253  009E  1283               	bcf	3,5	;RP0=0, select bank0
  4254  009F  1303               	bcf	3,6	;RP1=0, select bank0
  4255  00A0  00C7               	movwf	___flmul@temp+1
  4256  00A1  0876               	movf	?__Umul8_16,w
  4257  00A2  00C6               	movwf	___flmul@temp
  4258  00A3                     l2203:
  4259  00A3  0846               	movf	___flmul@temp,w
  4260  00A4  00B6               	movwf	??___flmul
  4261  00A5  01B7               	clrf	??___flmul+1
  4262  00A6  01B8               	clrf	??___flmul+2
  4263  00A7  01B9               	clrf	??___flmul+3
  4264  00A8  0839               	movf	??___flmul+3,w
  4265  00A9  00BF               	movwf	___flmul@grs+3
  4266  00AA  0838               	movf	??___flmul+2,w
  4267  00AB  00BE               	movwf	___flmul@grs+2
  4268  00AC  0837               	movf	??___flmul+1,w
  4269  00AD  00BD               	movwf	___flmul@grs+1
  4270  00AE  0836               	movf	??___flmul,w
  4271  00AF  00BC               	movwf	___flmul@grs
  4272  00B0                     l2205:
  4273  00B0  0847               	movf	___flmul@temp+1,w
  4274  00B1  00B6               	movwf	??___flmul
  4275  00B2  01B7               	clrf	??___flmul+1
  4276  00B3  01B8               	clrf	??___flmul+2
  4277  00B4  01B9               	clrf	??___flmul+3
  4278  00B5  0839               	movf	??___flmul+3,w
  4279  00B6  00C5               	movwf	___flmul@prod+3
  4280  00B7  0838               	movf	??___flmul+2,w
  4281  00B8  00C4               	movwf	___flmul@prod+2
  4282  00B9  0837               	movf	??___flmul+1,w
  4283  00BA  00C3               	movwf	___flmul@prod+1
  4284  00BB  0836               	movf	??___flmul,w
  4285  00BC  00C2               	movwf	___flmul@prod
  4286  00BD  082F               	movf	___flmul@b+1,w
  4287  00BE  00B6               	movwf	??___flmul
  4288  00BF  0836               	movf	??___flmul,w
  4289  00C0  00F6               	movwf	__Umul8_16@multiplicand
  4290  00C1  0833               	movf	___flmul@a+1,w
  4291  00C2  120A  158A  2158  120A  118A  	fcall	__Umul8_16
  4292  00C7  0877               	movf	?__Umul8_16+1,w
  4293  00C8  1283               	bcf	3,5	;RP0=0, select bank0
  4294  00C9  1303               	bcf	3,6	;RP1=0, select bank0
  4295  00CA  00C7               	movwf	___flmul@temp+1
  4296  00CB  0876               	movf	?__Umul8_16,w
  4297  00CC  00C6               	movwf	___flmul@temp
  4298  00CD                     l2207:
  4299  00CD  0846               	movf	___flmul@temp,w
  4300  00CE  00B6               	movwf	??___flmul
  4301  00CF  01B7               	clrf	??___flmul+1
  4302  00D0  01B8               	clrf	??___flmul+2
  4303  00D1  01B9               	clrf	??___flmul+3
  4304  00D2  0836               	movf	??___flmul,w
  4305  00D3  07BC               	addwf	___flmul@grs,f
  4306  00D4  0837               	movf	??___flmul+1,w
  4307  00D5  1103               	clrz
  4308  00D6  1803               	skipnc
  4309  00D7  3E01               	addlw	1
  4310  00D8  1903               	skipnz
  4311  00D9  28DB               	goto	u2811
  4312  00DA  07BD               	addwf	___flmul@grs+1,f
  4313  00DB                     u2811:
  4314  00DB  0838               	movf	??___flmul+2,w
  4315  00DC  1103               	clrz
  4316  00DD  1803               	skipnc
  4317  00DE  3E01               	addlw	1
  4318  00DF  1903               	skipnz
  4319  00E0  28E2               	goto	u2812
  4320  00E1  07BE               	addwf	___flmul@grs+2,f
  4321  00E2                     u2812:
  4322  00E2  0839               	movf	??___flmul+3,w
  4323  00E3  1103               	clrz
  4324  00E4  1803               	skipnc
  4325  00E5  3E01               	addlw	1
  4326  00E6  1903               	skipnz
  4327  00E7  28E9               	goto	u2813
  4328  00E8  07BF               	addwf	___flmul@grs+3,f
  4329  00E9                     u2813:
  4330  00E9                     l2209:
  4331  00E9  0847               	movf	___flmul@temp+1,w
  4332  00EA  00B6               	movwf	??___flmul
  4333  00EB  01B7               	clrf	??___flmul+1
  4334  00EC  01B8               	clrf	??___flmul+2
  4335  00ED  01B9               	clrf	??___flmul+3
  4336  00EE  0836               	movf	??___flmul,w
  4337  00EF  07C2               	addwf	___flmul@prod,f
  4338  00F0  0837               	movf	??___flmul+1,w
  4339  00F1  1103               	clrz
  4340  00F2  1803               	skipnc
  4341  00F3  3E01               	addlw	1
  4342  00F4  1903               	skipnz
  4343  00F5  28F7               	goto	u2821
  4344  00F6  07C3               	addwf	___flmul@prod+1,f
  4345  00F7                     u2821:
  4346  00F7  0838               	movf	??___flmul+2,w
  4347  00F8  1103               	clrz
  4348  00F9  1803               	skipnc
  4349  00FA  3E01               	addlw	1
  4350  00FB  1903               	skipnz
  4351  00FC  28FE               	goto	u2822
  4352  00FD  07C4               	addwf	___flmul@prod+2,f
  4353  00FE                     u2822:
  4354  00FE  0839               	movf	??___flmul+3,w
  4355  00FF  1103               	clrz
  4356  0100  1803               	skipnc
  4357  0101  3E01               	addlw	1
  4358  0102  1903               	skipnz
  4359  0103  2905               	goto	u2823
  4360  0104  07C5               	addwf	___flmul@prod+3,f
  4361  0105                     u2823:
  4362  0105  0830               	movf	___flmul@b+2,w
  4363  0106  00B6               	movwf	??___flmul
  4364  0107  0836               	movf	??___flmul,w
  4365  0108  00F6               	movwf	__Umul8_16@multiplicand
  4366  0109  0832               	movf	___flmul@a,w
  4367  010A  120A  158A  2158  120A  118A  	fcall	__Umul8_16
  4368  010F  0877               	movf	?__Umul8_16+1,w
  4369  0110  1283               	bcf	3,5	;RP0=0, select bank0
  4370  0111  1303               	bcf	3,6	;RP1=0, select bank0
  4371  0112  00C7               	movwf	___flmul@temp+1
  4372  0113  0876               	movf	?__Umul8_16,w
  4373  0114  00C6               	movwf	___flmul@temp
  4374  0115                     l2211:
  4375  0115  0846               	movf	___flmul@temp,w
  4376  0116  00B6               	movwf	??___flmul
  4377  0117  01B7               	clrf	??___flmul+1
  4378  0118  01B8               	clrf	??___flmul+2
  4379  0119  01B9               	clrf	??___flmul+3
  4380  011A  0836               	movf	??___flmul,w
  4381  011B  07BC               	addwf	___flmul@grs,f
  4382  011C  0837               	movf	??___flmul+1,w
  4383  011D  1103               	clrz
  4384  011E  1803               	skipnc
  4385  011F  3E01               	addlw	1
  4386  0120  1903               	skipnz
  4387  0121  2923               	goto	u2831
  4388  0122  07BD               	addwf	___flmul@grs+1,f
  4389  0123                     u2831:
  4390  0123  0838               	movf	??___flmul+2,w
  4391  0124  1103               	clrz
  4392  0125  1803               	skipnc
  4393  0126  3E01               	addlw	1
  4394  0127  1903               	skipnz
  4395  0128  292A               	goto	u2832
  4396  0129  07BE               	addwf	___flmul@grs+2,f
  4397  012A                     u2832:
  4398  012A  0839               	movf	??___flmul+3,w
  4399  012B  1103               	clrz
  4400  012C  1803               	skipnc
  4401  012D  3E01               	addlw	1
  4402  012E  1903               	skipnz
  4403  012F  2931               	goto	u2833
  4404  0130  07BF               	addwf	___flmul@grs+3,f
  4405  0131                     u2833:
  4406  0131                     l2213:
  4407  0131  0847               	movf	___flmul@temp+1,w
  4408  0132  00B6               	movwf	??___flmul
  4409  0133  01B7               	clrf	??___flmul+1
  4410  0134  01B8               	clrf	??___flmul+2
  4411  0135  01B9               	clrf	??___flmul+3
  4412  0136  0836               	movf	??___flmul,w
  4413  0137  07C2               	addwf	___flmul@prod,f
  4414  0138  0837               	movf	??___flmul+1,w
  4415  0139  1103               	clrz
  4416  013A  1803               	skipnc
  4417  013B  3E01               	addlw	1
  4418  013C  1903               	skipnz
  4419  013D  293F               	goto	u2841
  4420  013E  07C3               	addwf	___flmul@prod+1,f
  4421  013F                     u2841:
  4422  013F  0838               	movf	??___flmul+2,w
  4423  0140  1103               	clrz
  4424  0141  1803               	skipnc
  4425  0142  3E01               	addlw	1
  4426  0143  1903               	skipnz
  4427  0144  2946               	goto	u2842
  4428  0145  07C4               	addwf	___flmul@prod+2,f
  4429  0146                     u2842:
  4430  0146  0839               	movf	??___flmul+3,w
  4431  0147  1103               	clrz
  4432  0148  1803               	skipnc
  4433  0149  3E01               	addlw	1
  4434  014A  1903               	skipnz
  4435  014B  294D               	goto	u2843
  4436  014C  07C5               	addwf	___flmul@prod+3,f
  4437  014D                     u2843:
  4438  014D                     l2215:
  4439  014D  3008               	movlw	8
  4440  014E  00B6               	movwf	??___flmul
  4441  014F                     u2855:
  4442  014F  1003               	clrc
  4443  0150  0DBC               	rlf	___flmul@grs,f
  4444  0151  0DBD               	rlf	___flmul@grs+1,f
  4445  0152  0DBE               	rlf	___flmul@grs+2,f
  4446  0153  0DBF               	rlf	___flmul@grs+3,f
  4447  0154  0BB6               	decfsz	??___flmul,f
  4448  0155  294F               	goto	u2855
  4449  0156                     l2217:
  4450  0156  082F               	movf	___flmul@b+1,w
  4451  0157  00B6               	movwf	??___flmul
  4452  0158  0836               	movf	??___flmul,w
  4453  0159  00F6               	movwf	__Umul8_16@multiplicand
  4454  015A  0832               	movf	___flmul@a,w
  4455  015B  120A  158A  2158  120A  118A  	fcall	__Umul8_16
  4456  0160  0877               	movf	?__Umul8_16+1,w
  4457  0161  1283               	bcf	3,5	;RP0=0, select bank0
  4458  0162  1303               	bcf	3,6	;RP1=0, select bank0
  4459  0163  00C7               	movwf	___flmul@temp+1
  4460  0164  0876               	movf	?__Umul8_16,w
  4461  0165  00C6               	movwf	___flmul@temp
  4462  0166                     l2219:
  4463  0166  0846               	movf	___flmul@temp,w
  4464  0167  00B6               	movwf	??___flmul
  4465  0168  0847               	movf	___flmul@temp+1,w
  4466  0169  00B7               	movwf	??___flmul+1
  4467  016A  01B8               	clrf	??___flmul+2
  4468  016B  01B9               	clrf	??___flmul+3
  4469  016C  0836               	movf	??___flmul,w
  4470  016D  07BC               	addwf	___flmul@grs,f
  4471  016E  0837               	movf	??___flmul+1,w
  4472  016F  1103               	clrz
  4473  0170  1803               	skipnc
  4474  0171  3E01               	addlw	1
  4475  0172  1903               	skipnz
  4476  0173  2975               	goto	u2861
  4477  0174  07BD               	addwf	___flmul@grs+1,f
  4478  0175                     u2861:
  4479  0175  0838               	movf	??___flmul+2,w
  4480  0176  1103               	clrz
  4481  0177  1803               	skipnc
  4482  0178  3E01               	addlw	1
  4483  0179  1903               	skipnz
  4484  017A  297C               	goto	u2862
  4485  017B  07BE               	addwf	___flmul@grs+2,f
  4486  017C                     u2862:
  4487  017C  0839               	movf	??___flmul+3,w
  4488  017D  1103               	clrz
  4489  017E  1803               	skipnc
  4490  017F  3E01               	addlw	1
  4491  0180  1903               	skipnz
  4492  0181  2983               	goto	u2863
  4493  0182  07BF               	addwf	___flmul@grs+3,f
  4494  0183                     u2863:
  4495  0183                     l2221:
  4496  0183  082E               	movf	___flmul@b,w
  4497  0184  00B6               	movwf	??___flmul
  4498  0185  0836               	movf	??___flmul,w
  4499  0186  00F6               	movwf	__Umul8_16@multiplicand
  4500  0187  0833               	movf	___flmul@a+1,w
  4501  0188  120A  158A  2158  120A  118A  	fcall	__Umul8_16
  4502  018D  0877               	movf	?__Umul8_16+1,w
  4503  018E  1283               	bcf	3,5	;RP0=0, select bank0
  4504  018F  1303               	bcf	3,6	;RP1=0, select bank0
  4505  0190  00C7               	movwf	___flmul@temp+1
  4506  0191  0876               	movf	?__Umul8_16,w
  4507  0192  00C6               	movwf	___flmul@temp
  4508  0193                     l2223:
  4509  0193  0846               	movf	___flmul@temp,w
  4510  0194  00B6               	movwf	??___flmul
  4511  0195  0847               	movf	___flmul@temp+1,w
  4512  0196  00B7               	movwf	??___flmul+1
  4513  0197  01B8               	clrf	??___flmul+2
  4514  0198  01B9               	clrf	??___flmul+3
  4515  0199  0836               	movf	??___flmul,w
  4516  019A  07BC               	addwf	___flmul@grs,f
  4517  019B  0837               	movf	??___flmul+1,w
  4518  019C  1103               	clrz
  4519  019D  1803               	skipnc
  4520  019E  3E01               	addlw	1
  4521  019F  1903               	skipnz
  4522  01A0  29A2               	goto	u2871
  4523  01A1  07BD               	addwf	___flmul@grs+1,f
  4524  01A2                     u2871:
  4525  01A2  0838               	movf	??___flmul+2,w
  4526  01A3  1103               	clrz
  4527  01A4  1803               	skipnc
  4528  01A5  3E01               	addlw	1
  4529  01A6  1903               	skipnz
  4530  01A7  29A9               	goto	u2872
  4531  01A8  07BE               	addwf	___flmul@grs+2,f
  4532  01A9                     u2872:
  4533  01A9  0839               	movf	??___flmul+3,w
  4534  01AA  1103               	clrz
  4535  01AB  1803               	skipnc
  4536  01AC  3E01               	addlw	1
  4537  01AD  1903               	skipnz
  4538  01AE  29B0               	goto	u2873
  4539  01AF  07BF               	addwf	___flmul@grs+3,f
  4540  01B0                     u2873:
  4541  01B0                     l2225:
  4542  01B0  3008               	movlw	8
  4543  01B1  00B6               	movwf	??___flmul
  4544  01B2                     u2885:
  4545  01B2  1003               	clrc
  4546  01B3  0DBC               	rlf	___flmul@grs,f
  4547  01B4  0DBD               	rlf	___flmul@grs+1,f
  4548  01B5  0DBE               	rlf	___flmul@grs+2,f
  4549  01B6  0DBF               	rlf	___flmul@grs+3,f
  4550  01B7  0BB6               	decfsz	??___flmul,f
  4551  01B8  29B2               	goto	u2885
  4552  01B9  082E               	movf	___flmul@b,w
  4553  01BA  00B6               	movwf	??___flmul
  4554  01BB  0836               	movf	??___flmul,w
  4555  01BC  00F6               	movwf	__Umul8_16@multiplicand
  4556  01BD  0832               	movf	___flmul@a,w
  4557  01BE  120A  158A  2158  120A  118A  	fcall	__Umul8_16
  4558  01C3  0877               	movf	?__Umul8_16+1,w
  4559  01C4  1283               	bcf	3,5	;RP0=0, select bank0
  4560  01C5  1303               	bcf	3,6	;RP1=0, select bank0
  4561  01C6  00C7               	movwf	___flmul@temp+1
  4562  01C7  0876               	movf	?__Umul8_16,w
  4563  01C8  00C6               	movwf	___flmul@temp
  4564  01C9                     l2227:
  4565  01C9  0846               	movf	___flmul@temp,w
  4566  01CA  00B6               	movwf	??___flmul
  4567  01CB  0847               	movf	___flmul@temp+1,w
  4568  01CC  00B7               	movwf	??___flmul+1
  4569  01CD  01B8               	clrf	??___flmul+2
  4570  01CE  01B9               	clrf	??___flmul+3
  4571  01CF  0836               	movf	??___flmul,w
  4572  01D0  07BC               	addwf	___flmul@grs,f
  4573  01D1  0837               	movf	??___flmul+1,w
  4574  01D2  1103               	clrz
  4575  01D3  1803               	skipnc
  4576  01D4  3E01               	addlw	1
  4577  01D5  1903               	skipnz
  4578  01D6  29D8               	goto	u2891
  4579  01D7  07BD               	addwf	___flmul@grs+1,f
  4580  01D8                     u2891:
  4581  01D8  0838               	movf	??___flmul+2,w
  4582  01D9  1103               	clrz
  4583  01DA  1803               	skipnc
  4584  01DB  3E01               	addlw	1
  4585  01DC  1903               	skipnz
  4586  01DD  29DF               	goto	u2892
  4587  01DE  07BE               	addwf	___flmul@grs+2,f
  4588  01DF                     u2892:
  4589  01DF  0839               	movf	??___flmul+3,w
  4590  01E0  1103               	clrz
  4591  01E1  1803               	skipnc
  4592  01E2  3E01               	addlw	1
  4593  01E3  1903               	skipnz
  4594  01E4  29E6               	goto	u2893
  4595  01E5  07BF               	addwf	___flmul@grs+3,f
  4596  01E6                     u2893:
  4597  01E6                     l2229:
  4598  01E6  082F               	movf	___flmul@b+1,w
  4599  01E7  00B6               	movwf	??___flmul
  4600  01E8  0836               	movf	??___flmul,w
  4601  01E9  00F6               	movwf	__Umul8_16@multiplicand
  4602  01EA  0834               	movf	___flmul@a+2,w
  4603  01EB  120A  158A  2158  120A  118A  	fcall	__Umul8_16
  4604  01F0  0877               	movf	?__Umul8_16+1,w
  4605  01F1  1283               	bcf	3,5	;RP0=0, select bank0
  4606  01F2  1303               	bcf	3,6	;RP1=0, select bank0
  4607  01F3  00C7               	movwf	___flmul@temp+1
  4608  01F4  0876               	movf	?__Umul8_16,w
  4609  01F5  00C6               	movwf	___flmul@temp
  4610  01F6  0846               	movf	___flmul@temp,w
  4611  01F7  00B6               	movwf	??___flmul
  4612  01F8  0847               	movf	___flmul@temp+1,w
  4613  01F9  00B7               	movwf	??___flmul+1
  4614  01FA  01B8               	clrf	??___flmul+2
  4615  01FB  01B9               	clrf	??___flmul+3
  4616  01FC  0836               	movf	??___flmul,w
  4617  01FD  07C2               	addwf	___flmul@prod,f
  4618  01FE  0837               	movf	??___flmul+1,w
  4619  01FF  1103               	clrz
  4620  0200  1803               	skipnc
  4621  0201  3E01               	addlw	1
  4622  0202  1903               	skipnz
  4623  0203  2A05               	goto	u2901
  4624  0204  07C3               	addwf	___flmul@prod+1,f
  4625  0205                     u2901:
  4626  0205  0838               	movf	??___flmul+2,w
  4627  0206  1103               	clrz
  4628  0207  1803               	skipnc
  4629  0208  3E01               	addlw	1
  4630  0209  1903               	skipnz
  4631  020A  2A0C               	goto	u2902
  4632  020B  07C4               	addwf	___flmul@prod+2,f
  4633  020C                     u2902:
  4634  020C  0839               	movf	??___flmul+3,w
  4635  020D  1103               	clrz
  4636  020E  1803               	skipnc
  4637  020F  3E01               	addlw	1
  4638  0210  1903               	skipnz
  4639  0211  2A13               	goto	u2903
  4640  0212  07C5               	addwf	___flmul@prod+3,f
  4641  0213                     u2903:
  4642  0213                     l2231:
  4643  0213  0830               	movf	___flmul@b+2,w
  4644  0214  00B6               	movwf	??___flmul
  4645  0215  0836               	movf	??___flmul,w
  4646  0216  00F6               	movwf	__Umul8_16@multiplicand
  4647  0217  0833               	movf	___flmul@a+1,w
  4648  0218  120A  158A  2158  120A  118A  	fcall	__Umul8_16
  4649  021D  0877               	movf	?__Umul8_16+1,w
  4650  021E  1283               	bcf	3,5	;RP0=0, select bank0
  4651  021F  1303               	bcf	3,6	;RP1=0, select bank0
  4652  0220  00C7               	movwf	___flmul@temp+1
  4653  0221  0876               	movf	?__Umul8_16,w
  4654  0222  00C6               	movwf	___flmul@temp
  4655  0223                     l2233:
  4656  0223  0846               	movf	___flmul@temp,w
  4657  0224  00B6               	movwf	??___flmul
  4658  0225  0847               	movf	___flmul@temp+1,w
  4659  0226  00B7               	movwf	??___flmul+1
  4660  0227  01B8               	clrf	??___flmul+2
  4661  0228  01B9               	clrf	??___flmul+3
  4662  0229  0836               	movf	??___flmul,w
  4663  022A  07C2               	addwf	___flmul@prod,f
  4664  022B  0837               	movf	??___flmul+1,w
  4665  022C  1103               	clrz
  4666  022D  1803               	skipnc
  4667  022E  3E01               	addlw	1
  4668  022F  1903               	skipnz
  4669  0230  2A32               	goto	u2911
  4670  0231  07C3               	addwf	___flmul@prod+1,f
  4671  0232                     u2911:
  4672  0232  0838               	movf	??___flmul+2,w
  4673  0233  1103               	clrz
  4674  0234  1803               	skipnc
  4675  0235  3E01               	addlw	1
  4676  0236  1903               	skipnz
  4677  0237  2A39               	goto	u2912
  4678  0238  07C4               	addwf	___flmul@prod+2,f
  4679  0239                     u2912:
  4680  0239  0839               	movf	??___flmul+3,w
  4681  023A  1103               	clrz
  4682  023B  1803               	skipnc
  4683  023C  3E01               	addlw	1
  4684  023D  1903               	skipnz
  4685  023E  2A40               	goto	u2913
  4686  023F  07C5               	addwf	___flmul@prod+3,f
  4687  0240                     u2913:
  4688  0240  0830               	movf	___flmul@b+2,w
  4689  0241  00B6               	movwf	??___flmul
  4690  0242  0836               	movf	??___flmul,w
  4691  0243  00F6               	movwf	__Umul8_16@multiplicand
  4692  0244  0834               	movf	___flmul@a+2,w
  4693  0245  120A  158A  2158  120A  118A  	fcall	__Umul8_16
  4694  024A  0877               	movf	?__Umul8_16+1,w
  4695  024B  1283               	bcf	3,5	;RP0=0, select bank0
  4696  024C  1303               	bcf	3,6	;RP1=0, select bank0
  4697  024D  00C7               	movwf	___flmul@temp+1
  4698  024E  0876               	movf	?__Umul8_16,w
  4699  024F  00C6               	movwf	___flmul@temp
  4700  0250                     l2235:
  4701  0250  0846               	movf	___flmul@temp,w
  4702  0251  00B6               	movwf	??___flmul
  4703  0252  0847               	movf	___flmul@temp+1,w
  4704  0253  00B7               	movwf	??___flmul+1
  4705  0254  01B8               	clrf	??___flmul+2
  4706  0255  01B9               	clrf	??___flmul+3
  4707  0256  3008               	movlw	8
  4708  0257                     u2925:
  4709  0257  1003               	clrc
  4710  0258  0DB6               	rlf	??___flmul,f
  4711  0259  0DB7               	rlf	??___flmul+1,f
  4712  025A  0DB8               	rlf	??___flmul+2,f
  4713  025B  0DB9               	rlf	??___flmul+3,f
  4714  025C                     u2920:
  4715  025C  3EFF               	addlw	-1
  4716  025D  1D03               	skipz
  4717  025E  2A57               	goto	u2925
  4718  025F  0836               	movf	??___flmul,w
  4719  0260  07C2               	addwf	___flmul@prod,f
  4720  0261  0837               	movf	??___flmul+1,w
  4721  0262  1103               	clrz
  4722  0263  1803               	skipnc
  4723  0264  3E01               	addlw	1
  4724  0265  1903               	skipnz
  4725  0266  2A68               	goto	u2931
  4726  0267  07C3               	addwf	___flmul@prod+1,f
  4727  0268                     u2931:
  4728  0268  0838               	movf	??___flmul+2,w
  4729  0269  1103               	clrz
  4730  026A  1803               	skipnc
  4731  026B  3E01               	addlw	1
  4732  026C  1903               	skipnz
  4733  026D  2A6F               	goto	u2932
  4734  026E  07C4               	addwf	___flmul@prod+2,f
  4735  026F                     u2932:
  4736  026F  0839               	movf	??___flmul+3,w
  4737  0270  1103               	clrz
  4738  0271  1803               	skipnc
  4739  0272  3E01               	addlw	1
  4740  0273  1903               	skipnz
  4741  0274  2A76               	goto	u2933
  4742  0275  07C5               	addwf	___flmul@prod+3,f
  4743  0276                     u2933:
  4744  0276                     l2237:
  4745  0276  083C               	movf	___flmul@grs,w
  4746  0277  00B6               	movwf	??___flmul
  4747  0278  083D               	movf	___flmul@grs+1,w
  4748  0279  00B7               	movwf	??___flmul+1
  4749  027A  083E               	movf	___flmul@grs+2,w
  4750  027B  00B8               	movwf	??___flmul+2
  4751  027C  083F               	movf	___flmul@grs+3,w
  4752  027D  00B9               	movwf	??___flmul+3
  4753  027E  3018               	movlw	24
  4754  027F                     u2945:
  4755  027F  1003               	clrc
  4756  0280  0CB9               	rrf	??___flmul+3,f
  4757  0281  0CB8               	rrf	??___flmul+2,f
  4758  0282  0CB7               	rrf	??___flmul+1,f
  4759  0283  0CB6               	rrf	??___flmul,f
  4760  0284                     u2940:
  4761  0284  3EFF               	addlw	-1
  4762  0285  1D03               	skipz
  4763  0286  2A7F               	goto	u2945
  4764  0287  0836               	movf	??___flmul,w
  4765  0288  07C2               	addwf	___flmul@prod,f
  4766  0289  0837               	movf	??___flmul+1,w
  4767  028A  1103               	clrz
  4768  028B  1803               	skipnc
  4769  028C  3E01               	addlw	1
  4770  028D  1903               	skipnz
  4771  028E  2A90               	goto	u2951
  4772  028F  07C3               	addwf	___flmul@prod+1,f
  4773  0290                     u2951:
  4774  0290  0838               	movf	??___flmul+2,w
  4775  0291  1103               	clrz
  4776  0292  1803               	skipnc
  4777  0293  3E01               	addlw	1
  4778  0294  1903               	skipnz
  4779  0295  2A97               	goto	u2952
  4780  0296  07C4               	addwf	___flmul@prod+2,f
  4781  0297                     u2952:
  4782  0297  0839               	movf	??___flmul+3,w
  4783  0298  1103               	clrz
  4784  0299  1803               	skipnc
  4785  029A  3E01               	addlw	1
  4786  029B  1903               	skipnz
  4787  029C  2A9E               	goto	u2953
  4788  029D  07C5               	addwf	___flmul@prod+3,f
  4789  029E                     u2953:
  4790  029E                     l2239:
  4791  029E  3008               	movlw	8
  4792  029F  00B6               	movwf	??___flmul
  4793  02A0                     u2965:
  4794  02A0  1003               	clrc
  4795  02A1  0DBC               	rlf	___flmul@grs,f
  4796  02A2  0DBD               	rlf	___flmul@grs+1,f
  4797  02A3  0DBE               	rlf	___flmul@grs+2,f
  4798  02A4  0DBF               	rlf	___flmul@grs+3,f
  4799  02A5  0BB6               	decfsz	??___flmul,f
  4800  02A6  2AA0               	goto	u2965
  4801  02A7                     l2241:
  4802  02A7  0841               	movf	___flmul@bexp,w
  4803  02A8  0740               	addwf	___flmul@aexp,w
  4804  02A9  00B6               	movwf	??___flmul
  4805  02AA  01B7               	clrf	??___flmul+1
  4806  02AB  0DB7               	rlf	??___flmul+1,f
  4807  02AC  0836               	movf	??___flmul,w
  4808  02AD  3E82               	addlw	130
  4809  02AE  00C6               	movwf	___flmul@temp
  4810  02AF  0837               	movf	??___flmul+1,w
  4811  02B0  1803               	skipnc
  4812  02B1  3E01               	addlw	1
  4813  02B2  3EFF               	addlw	255
  4814  02B3  00C7               	movwf	___flmul@temp+1
  4815  02B4  2AD2               	goto	l2253
  4816  02B5                     l2243:
  4817  02B5  3001               	movlw	1
  4818  02B6  00B6               	movwf	??___flmul
  4819  02B7                     u2975:
  4820  02B7  1003               	clrc
  4821  02B8  0DC2               	rlf	___flmul@prod,f
  4822  02B9  0DC3               	rlf	___flmul@prod+1,f
  4823  02BA  0DC4               	rlf	___flmul@prod+2,f
  4824  02BB  0DC5               	rlf	___flmul@prod+3,f
  4825  02BC  0BB6               	decfsz	??___flmul,f
  4826  02BD  2AB7               	goto	u2975
  4827  02BE                     l2245:
  4828  02BE  1FBF               	btfss	___flmul@grs+3,7
  4829  02BF  2AC1               	goto	u2981
  4830  02C0  2AC2               	goto	u2980
  4831  02C1                     u2981:
  4832  02C1  2AC3               	goto	l2249
  4833  02C2                     u2980:
  4834  02C2                     l2247:
  4835  02C2  1442               	bsf	___flmul@prod,0
  4836  02C3                     l2249:
  4837  02C3  3001               	movlw	1
  4838  02C4  00B6               	movwf	??___flmul
  4839  02C5                     u2995:
  4840  02C5  1003               	clrc
  4841  02C6  0DBC               	rlf	___flmul@grs,f
  4842  02C7  0DBD               	rlf	___flmul@grs+1,f
  4843  02C8  0DBE               	rlf	___flmul@grs+2,f
  4844  02C9  0DBF               	rlf	___flmul@grs+3,f
  4845  02CA  0BB6               	decfsz	??___flmul,f
  4846  02CB  2AC5               	goto	u2995
  4847  02CC                     l2251:
  4848  02CC  30FF               	movlw	255
  4849  02CD  07C6               	addwf	___flmul@temp,f
  4850  02CE  1803               	skipnc
  4851  02CF  0AC7               	incf	___flmul@temp+1,f
  4852  02D0  30FF               	movlw	255
  4853  02D1  07C7               	addwf	___flmul@temp+1,f
  4854  02D2                     l2253:
  4855  02D2  1FC4               	btfss	___flmul@prod+2,7
  4856  02D3  2AD5               	goto	u3001
  4857  02D4  2AD6               	goto	u3000
  4858  02D5                     u3001:
  4859  02D5  2AB5               	goto	l2243
  4860  02D6                     u3000:
  4861  02D6                     l2255:
  4862  02D6  01C0               	clrf	___flmul@aexp
  4863  02D7                     l2257:
  4864  02D7  1FBF               	btfss	___flmul@grs+3,7
  4865  02D8  2ADA               	goto	u3011
  4866  02D9  2ADB               	goto	u3010
  4867  02DA                     u3011:
  4868  02DA  2AF7               	goto	l2265
  4869  02DB                     u3010:
  4870  02DB                     l2259:
  4871  02DB  30FF               	movlw	255
  4872  02DC  053C               	andwf	___flmul@grs,w
  4873  02DD  00B6               	movwf	??___flmul
  4874  02DE  30FF               	movlw	255
  4875  02DF  053D               	andwf	___flmul@grs+1,w
  4876  02E0  00B7               	movwf	??___flmul+1
  4877  02E1  30FF               	movlw	255
  4878  02E2  053E               	andwf	___flmul@grs+2,w
  4879  02E3  00B8               	movwf	??___flmul+2
  4880  02E4  307F               	movlw	127
  4881  02E5  053F               	andwf	___flmul@grs+3,w
  4882  02E6  00B9               	movwf	??___flmul+3
  4883  02E7  0839               	movf	??___flmul+3,w
  4884  02E8  0438               	iorwf	??___flmul+2,w
  4885  02E9  0437               	iorwf	??___flmul+1,w
  4886  02EA  0436               	iorwf	??___flmul,w
  4887  02EB  1903               	skipnz
  4888  02EC  2AEE               	goto	u3021
  4889  02ED  2AEF               	goto	u3020
  4890  02EE                     u3021:
  4891  02EE  2AF2               	goto	l699
  4892  02EF                     u3020:
  4893  02EF                     l2261:
  4894  02EF  01C0               	clrf	___flmul@aexp
  4895  02F0  0AC0               	incf	___flmul@aexp,f
  4896  02F1  2AF7               	goto	l2265
  4897  02F2                     l699:
  4898  02F2  1C42               	btfss	___flmul@prod,0
  4899  02F3  2AF5               	goto	u3031
  4900  02F4  2AF6               	goto	u3030
  4901  02F5                     u3031:
  4902  02F5  2AF7               	goto	l2265
  4903  02F6                     u3030:
  4904  02F6  2AEF               	goto	l2261
  4905  02F7                     l2265:
  4906  02F7  0840               	movf	___flmul@aexp,w
  4907  02F8  1903               	btfsc	3,2
  4908  02F9  2AFB               	goto	u3041
  4909  02FA  2AFC               	goto	u3040
  4910  02FB                     u3041:
  4911  02FB  2B2D               	goto	l2275
  4912  02FC                     u3040:
  4913  02FC                     l2267:
  4914  02FC  3001               	movlw	1
  4915  02FD  07C2               	addwf	___flmul@prod,f
  4916  02FE  3000               	movlw	0
  4917  02FF  1803               	skipnc
  4918  0300  3001               	movlw	1
  4919  0301  07C3               	addwf	___flmul@prod+1,f
  4920  0302  3000               	movlw	0
  4921  0303  1803               	skipnc
  4922  0304  3001               	movlw	1
  4923  0305  07C4               	addwf	___flmul@prod+2,f
  4924  0306  3000               	movlw	0
  4925  0307  1803               	skipnc
  4926  0308  3001               	movlw	1
  4927  0309  07C5               	addwf	___flmul@prod+3,f
  4928  030A                     l2269:
  4929  030A  1C45               	btfss	___flmul@prod+3,0
  4930  030B  2B0D               	goto	u3051
  4931  030C  2B0E               	goto	u3050
  4932  030D                     u3051:
  4933  030D  2B2D               	goto	l2275
  4934  030E                     u3050:
  4935  030E                     l2271:
  4936  030E  0842               	movf	___flmul@prod,w
  4937  030F  00B6               	movwf	??___flmul
  4938  0310  0843               	movf	___flmul@prod+1,w
  4939  0311  00B7               	movwf	??___flmul+1
  4940  0312  0844               	movf	___flmul@prod+2,w
  4941  0313  00B8               	movwf	??___flmul+2
  4942  0314  0845               	movf	___flmul@prod+3,w
  4943  0315  00B9               	movwf	??___flmul+3
  4944  0316  3001               	movlw	1
  4945  0317  00BA               	movwf	??___flmul+4
  4946  0318                     u3065:
  4947  0318  0D39               	rlf	??___flmul+3,w
  4948  0319  0CB9               	rrf	??___flmul+3,f
  4949  031A  0CB8               	rrf	??___flmul+2,f
  4950  031B  0CB7               	rrf	??___flmul+1,f
  4951  031C  0CB6               	rrf	??___flmul,f
  4952  031D                     u3060:
  4953  031D  0BBA               	decfsz	??___flmul+4,f
  4954  031E  2B18               	goto	u3065
  4955  031F  0839               	movf	??___flmul+3,w
  4956  0320  00C5               	movwf	___flmul@prod+3
  4957  0321  0838               	movf	??___flmul+2,w
  4958  0322  00C4               	movwf	___flmul@prod+2
  4959  0323  0837               	movf	??___flmul+1,w
  4960  0324  00C3               	movwf	___flmul@prod+1
  4961  0325  0836               	movf	??___flmul,w
  4962  0326  00C2               	movwf	___flmul@prod
  4963  0327                     l2273:
  4964  0327  3001               	movlw	1
  4965  0328  07C6               	addwf	___flmul@temp,f
  4966  0329  1803               	skipnc
  4967  032A  0AC7               	incf	___flmul@temp+1,f
  4968  032B  3000               	movlw	0
  4969  032C  07C7               	addwf	___flmul@temp+1,f
  4970  032D                     l2275:
  4971  032D  0847               	movf	___flmul@temp+1,w
  4972  032E  3A80               	xorlw	128
  4973  032F  00FF               	movwf	btemp+1
  4974  0330  3080               	movlw	128
  4975  0331  027F               	subwf	btemp+1,w
  4976  0332  1D03               	skipz
  4977  0333  2B36               	goto	u3075
  4978  0334  30FF               	movlw	255
  4979  0335  0246               	subwf	___flmul@temp,w
  4980  0336                     u3075:
  4981  0336  1C03               	skipc
  4982  0337  2B39               	goto	u3071
  4983  0338  2B3A               	goto	u3070
  4984  0339                     u3071:
  4985  0339  2B45               	goto	l2279
  4986  033A                     u3070:
  4987  033A                     l2277:
  4988  033A  307F               	movlw	127
  4989  033B  1283               	bcf	3,5	;RP0=0, select bank0
  4990  033C  1303               	bcf	3,6	;RP1=0, select bank0
  4991  033D  00C5               	movwf	___flmul@prod+3
  4992  033E  3080               	movlw	128
  4993  033F  00C4               	movwf	___flmul@prod+2
  4994  0340  3000               	movlw	0
  4995  0341  00C3               	movwf	___flmul@prod+1
  4996  0342  3000               	movlw	0
  4997  0343  00C2               	movwf	___flmul@prod
  4998  0344  2B7A               	goto	l705
  4999  0345                     l2279:
  5000  0345  1283               	bcf	3,5	;RP0=0, select bank0
  5001  0346  1303               	bcf	3,6	;RP1=0, select bank0
  5002  0347  0847               	movf	___flmul@temp+1,w
  5003  0348  3A80               	xorlw	128
  5004  0349  00FF               	movwf	btemp+1
  5005  034A  3080               	movlw	128
  5006  034B  027F               	subwf	btemp+1,w
  5007  034C  1D03               	skipz
  5008  034D  2B50               	goto	u3085
  5009  034E  3001               	movlw	1
  5010  034F  0246               	subwf	___flmul@temp,w
  5011  0350                     u3085:
  5012  0350  1803               	skipnc
  5013  0351  2B53               	goto	u3081
  5014  0352  2B54               	goto	u3080
  5015  0353                     u3081:
  5016  0353  2B60               	goto	l2285
  5017  0354                     u3080:
  5018  0354                     l2281:
  5019  0354  3000               	movlw	0
  5020  0355  1283               	bcf	3,5	;RP0=0, select bank0
  5021  0356  1303               	bcf	3,6	;RP1=0, select bank0
  5022  0357  00C5               	movwf	___flmul@prod+3
  5023  0358  3000               	movlw	0
  5024  0359  00C4               	movwf	___flmul@prod+2
  5025  035A  3000               	movlw	0
  5026  035B  00C3               	movwf	___flmul@prod+1
  5027  035C  3000               	movlw	0
  5028  035D  00C2               	movwf	___flmul@prod
  5029  035E                     l2283:
  5030  035E  01BB               	clrf	___flmul@sign
  5031  035F  2B7A               	goto	l705
  5032  0360                     l2285:
  5033  0360  1283               	bcf	3,5	;RP0=0, select bank0
  5034  0361  1303               	bcf	3,6	;RP1=0, select bank0
  5035  0362  0846               	movf	___flmul@temp,w
  5036  0363  00B6               	movwf	??___flmul
  5037  0364  0836               	movf	??___flmul,w
  5038  0365  00C1               	movwf	___flmul@bexp
  5039  0366  30FF               	movlw	255
  5040  0367  05C2               	andwf	___flmul@prod,f
  5041  0368  30FF               	movlw	255
  5042  0369  05C3               	andwf	___flmul@prod+1,f
  5043  036A  307F               	movlw	127
  5044  036B  05C4               	andwf	___flmul@prod+2,f
  5045  036C  3000               	movlw	0
  5046  036D  05C5               	andwf	___flmul@prod+3,f
  5047  036E                     l2287:
  5048  036E  1C41               	btfss	___flmul@bexp,0
  5049  036F  2B71               	goto	u3091
  5050  0370  2B72               	goto	u3090
  5051  0371                     u3091:
  5052  0371  2B73               	goto	l2291
  5053  0372                     u3090:
  5054  0372                     l2289:
  5055  0372  17C4               	bsf	___flmul@prod+2,7
  5056  0373                     l2291:
  5057  0373  0841               	movf	___flmul@bexp,w
  5058  0374  00B6               	movwf	??___flmul
  5059  0375  1003               	clrc
  5060  0376  0C36               	rrf	??___flmul,w
  5061  0377  00B7               	movwf	??___flmul+1
  5062  0378  0837               	movf	??___flmul+1,w
  5063  0379  00C5               	movwf	___flmul@prod+3
  5064  037A                     l705:
  5065  037A  083B               	movf	___flmul@sign,w
  5066  037B  00B6               	movwf	??___flmul
  5067  037C  0836               	movf	??___flmul,w
  5068  037D  04C5               	iorwf	___flmul@prod+3,f
  5069  037E                     l2293:
  5070  037E  0845               	movf	___flmul@prod+3,w
  5071  037F  00B1               	movwf	?___flmul+3
  5072  0380  0844               	movf	___flmul@prod+2,w
  5073  0381  00B0               	movwf	?___flmul+2
  5074  0382  0843               	movf	___flmul@prod+1,w
  5075  0383  00AF               	movwf	?___flmul+1
  5076  0384  0842               	movf	___flmul@prod,w
  5077  0385  00AE               	movwf	?___flmul
  5078  0386                     l693:
  5079  0386  0008               	return
  5080  0387                     __end_of___flmul:
  5081                           
  5082                           	psect	text12
  5083  0958                     __ptext12:	
  5084 ;; *************** function __Umul8_16 *****************
  5085 ;; Defined at:
  5086 ;;		line 4 in file "C:\Program Files\Microchip\xc8\v2.31\pic\sources\c90\common\Umul8_16.c"
  5087 ;; Parameters:    Size  Location     Type
  5088 ;;  multiplier      1    wreg     unsigned char 
  5089 ;;  multiplicand    1    6[COMMON] unsigned char 
  5090 ;; Auto vars:     Size  Location     Type
  5091 ;;  multiplier      1    6[BANK0 ] unsigned char 
  5092 ;;  word_mpld       2    4[BANK0 ] unsigned int 
  5093 ;;  product         2    2[BANK0 ] unsigned int 
  5094 ;; Return value:  Size  Location     Type
  5095 ;;                  2    6[COMMON] unsigned int 
  5096 ;; Registers used:
  5097 ;;		wreg, status,2, status,0
  5098 ;; Tracked objects:
  5099 ;;		On entry : 0/0
  5100 ;;		On exit  : 0/0
  5101 ;;		Unchanged: 0/0
  5102 ;; Data sizes:     COMMON   BANK0   BANK1   BANK3   BANK2
  5103 ;;      Params:         2       0       0       0       0
  5104 ;;      Locals:         0       5       0       0       0
  5105 ;;      Temps:          0       2       0       0       0
  5106 ;;      Totals:         2       7       0       0       0
  5107 ;;Total ram usage:        9 bytes
  5108 ;; Hardware stack levels used:    1
  5109 ;; Hardware stack levels required when called:    1
  5110 ;; This function calls:
  5111 ;;		Nothing
  5112 ;; This function is called by:
  5113 ;;		___flmul
  5114 ;; This function uses a non-reentrant model
  5115 ;;
  5116                           
  5117                           
  5118                           ;psect for function __Umul8_16
  5119  0958                     __Umul8_16:
  5120                           
  5121                           ;incstack = 0
  5122                           ; Regs used in __Umul8_16: [wreg+status,2+status,0]
  5123                           ;__Umul8_16@multiplier stored from wreg
  5124  0958  1283               	bcf	3,5	;RP0=0, select bank0
  5125  0959  1303               	bcf	3,6	;RP1=0, select bank0
  5126  095A  00A6               	movwf	__Umul8_16@multiplier
  5127  095B                     l2041:
  5128  095B  01A2               	clrf	__Umul8_16@product
  5129  095C  01A3               	clrf	__Umul8_16@product+1
  5130  095D                     l2043:
  5131  095D  0876               	movf	__Umul8_16@multiplicand,w
  5132  095E  00A0               	movwf	??__Umul8_16
  5133  095F  01A1               	clrf	??__Umul8_16+1
  5134  0960  0820               	movf	??__Umul8_16,w
  5135  0961  00A4               	movwf	__Umul8_16@word_mpld
  5136  0962  0821               	movf	??__Umul8_16+1,w
  5137  0963  00A5               	movwf	__Umul8_16@word_mpld+1
  5138  0964                     l2045:
  5139  0964  1C26               	btfss	__Umul8_16@multiplier,0
  5140  0965  2967               	goto	u2461
  5141  0966  2968               	goto	u2460
  5142  0967                     u2461:
  5143  0967  296E               	goto	l712
  5144  0968                     u2460:
  5145  0968                     l2047:
  5146  0968  0824               	movf	__Umul8_16@word_mpld,w
  5147  0969  07A2               	addwf	__Umul8_16@product,f
  5148  096A  1803               	skipnc
  5149  096B  0AA3               	incf	__Umul8_16@product+1,f
  5150  096C  0825               	movf	__Umul8_16@word_mpld+1,w
  5151  096D  07A3               	addwf	__Umul8_16@product+1,f
  5152  096E                     l712:
  5153  096E  3001               	movlw	1
  5154  096F                     u2475:
  5155  096F  1003               	clrc
  5156  0970  0DA4               	rlf	__Umul8_16@word_mpld,f
  5157  0971  0DA5               	rlf	__Umul8_16@word_mpld+1,f
  5158  0972  3EFF               	addlw	-1
  5159  0973  1D03               	skipz
  5160  0974  296F               	goto	u2475
  5161  0975  1003               	clrc
  5162  0976  0CA6               	rrf	__Umul8_16@multiplier,f
  5163  0977                     l2049:
  5164  0977  0826               	movf	__Umul8_16@multiplier,w
  5165  0978  1D03               	btfss	3,2
  5166  0979  297B               	goto	u2481
  5167  097A  297C               	goto	u2480
  5168  097B                     u2481:
  5169  097B  2964               	goto	l2045
  5170  097C                     u2480:
  5171  097C                     l2051:
  5172  097C  0823               	movf	__Umul8_16@product+1,w
  5173  097D  00F7               	movwf	?__Umul8_16+1
  5174  097E  0822               	movf	__Umul8_16@product,w
  5175  097F  00F6               	movwf	?__Umul8_16
  5176  0980                     l714:
  5177  0980  0008               	return
  5178  0981                     __end_of__Umul8_16:
  5179                           
  5180                           	psect	text13
  5181  0C54                     __ptext13:	
  5182 ;; *************** function ___flge *****************
  5183 ;; Defined at:
  5184 ;;		line 4 in file "C:\Program Files\Microchip\xc8\v2.31\pic\sources\c90\common\flge.c"
  5185 ;; Parameters:    Size  Location     Type
  5186 ;;  ff1             4    0[BANK0 ] unsigned int 
  5187 ;;  ff2             4    4[BANK0 ] unsigned int 
  5188 ;; Auto vars:     Size  Location     Type
  5189 ;;		None
  5190 ;; Return value:  Size  Location     Type
  5191 ;;		None               void
  5192 ;; Registers used:
  5193 ;;		wreg, status,2, status,0
  5194 ;; Tracked objects:
  5195 ;;		On entry : 0/0
  5196 ;;		On exit  : 0/0
  5197 ;;		Unchanged: 0/0
  5198 ;; Data sizes:     COMMON   BANK0   BANK1   BANK3   BANK2
  5199 ;;      Params:         0       8       0       0       0
  5200 ;;      Locals:         0       0       0       0       0
  5201 ;;      Temps:          0       4       0       0       0
  5202 ;;      Totals:         0      12       0       0       0
  5203 ;;Total ram usage:       12 bytes
  5204 ;; Hardware stack levels used:    1
  5205 ;; Hardware stack levels required when called:    1
  5206 ;; This function calls:
  5207 ;;		Nothing
  5208 ;; This function is called by:
  5209 ;;		_ftoa
  5210 ;; This function uses a non-reentrant model
  5211 ;;
  5212                           
  5213                           
  5214                           ;psect for function ___flge
  5215  0C54                     ___flge:
  5216  0C54                     l2087:	
  5217                           ;incstack = 0
  5218                           ; Regs used in ___flge: [wreg+status,2+status,0]
  5219                           
  5220  0C54  3000               	movlw	0
  5221  0C55  1283               	bcf	3,5	;RP0=0, select bank0
  5222  0C56  1303               	bcf	3,6	;RP1=0, select bank0
  5223  0C57  0520               	andwf	___flge@ff1,w
  5224  0C58  00A8               	movwf	??___flge
  5225  0C59  3000               	movlw	0
  5226  0C5A  0521               	andwf	___flge@ff1+1,w
  5227  0C5B  00A9               	movwf	??___flge+1
  5228  0C5C  3080               	movlw	128
  5229  0C5D  0522               	andwf	___flge@ff1+2,w
  5230  0C5E  00AA               	movwf	??___flge+2
  5231  0C5F  307F               	movlw	127
  5232  0C60  0523               	andwf	___flge@ff1+3,w
  5233  0C61  00AB               	movwf	??___flge+3
  5234  0C62  082B               	movf	??___flge+3,w
  5235  0C63  042A               	iorwf	??___flge+2,w
  5236  0C64  0429               	iorwf	??___flge+1,w
  5237  0C65  0428               	iorwf	??___flge,w
  5238  0C66  1D03               	skipz
  5239  0C67  2C69               	goto	u2551
  5240  0C68  2C6A               	goto	u2550
  5241  0C69                     u2551:
  5242  0C69  2C72               	goto	l478
  5243  0C6A                     u2550:
  5244  0C6A                     l2089:
  5245  0C6A  3000               	movlw	0
  5246  0C6B  00A3               	movwf	___flge@ff1+3
  5247  0C6C  3000               	movlw	0
  5248  0C6D  00A2               	movwf	___flge@ff1+2
  5249  0C6E  3000               	movlw	0
  5250  0C6F  00A1               	movwf	___flge@ff1+1
  5251  0C70  3000               	movlw	0
  5252  0C71  00A0               	movwf	___flge@ff1
  5253  0C72                     l478:
  5254  0C72  3000               	movlw	0
  5255  0C73  0524               	andwf	___flge@ff2,w
  5256  0C74  00A8               	movwf	??___flge
  5257  0C75  3000               	movlw	0
  5258  0C76  0525               	andwf	___flge@ff2+1,w
  5259  0C77  00A9               	movwf	??___flge+1
  5260  0C78  3080               	movlw	128
  5261  0C79  0526               	andwf	___flge@ff2+2,w
  5262  0C7A  00AA               	movwf	??___flge+2
  5263  0C7B  307F               	movlw	127
  5264  0C7C  0527               	andwf	___flge@ff2+3,w
  5265  0C7D  00AB               	movwf	??___flge+3
  5266  0C7E  082B               	movf	??___flge+3,w
  5267  0C7F  042A               	iorwf	??___flge+2,w
  5268  0C80  0429               	iorwf	??___flge+1,w
  5269  0C81  0428               	iorwf	??___flge,w
  5270  0C82  1D03               	skipz
  5271  0C83  2C85               	goto	u2561
  5272  0C84  2C86               	goto	u2560
  5273  0C85                     u2561:
  5274  0C85  2C8E               	goto	l2093
  5275  0C86                     u2560:
  5276  0C86                     l2091:
  5277  0C86  3000               	movlw	0
  5278  0C87  00A7               	movwf	___flge@ff2+3
  5279  0C88  3000               	movlw	0
  5280  0C89  00A6               	movwf	___flge@ff2+2
  5281  0C8A  3000               	movlw	0
  5282  0C8B  00A5               	movwf	___flge@ff2+1
  5283  0C8C  3000               	movlw	0
  5284  0C8D  00A4               	movwf	___flge@ff2
  5285  0C8E                     l2093:
  5286  0C8E  1FA3               	btfss	___flge@ff1+3,7
  5287  0C8F  2C91               	goto	u2571
  5288  0C90  2C92               	goto	u2570
  5289  0C91                     u2571:
  5290  0C91  2CB6               	goto	l2097
  5291  0C92                     u2570:
  5292  0C92                     l2095:
  5293  0C92  3000               	movlw	0
  5294  0C93  00A8               	movwf	??___flge
  5295  0C94  3000               	movlw	0
  5296  0C95  00A9               	movwf	??___flge+1
  5297  0C96  3000               	movlw	0
  5298  0C97  00AA               	movwf	??___flge+2
  5299  0C98  3080               	movlw	128
  5300  0C99  00AB               	movwf	??___flge+3
  5301  0C9A  0820               	movf	___flge@ff1,w
  5302  0C9B  02A8               	subwf	??___flge,f
  5303  0C9C  0821               	movf	___flge@ff1+1,w
  5304  0C9D  1C03               	skipc
  5305  0C9E  0F21               	incfsz	___flge@ff1+1,w
  5306  0C9F  2CA1               	goto	u2581
  5307  0CA0  2CA2               	goto	u2582
  5308  0CA1                     u2581:
  5309  0CA1  02A9               	subwf	??___flge+1,f
  5310  0CA2                     u2582:
  5311  0CA2  0822               	movf	___flge@ff1+2,w
  5312  0CA3  1C03               	skipc
  5313  0CA4  0F22               	incfsz	___flge@ff1+2,w
  5314  0CA5  2CA7               	goto	u2583
  5315  0CA6  2CA8               	goto	u2584
  5316  0CA7                     u2583:
  5317  0CA7  02AA               	subwf	??___flge+2,f
  5318  0CA8                     u2584:
  5319  0CA8  0823               	movf	___flge@ff1+3,w
  5320  0CA9  1C03               	skipc
  5321  0CAA  0F23               	incfsz	___flge@ff1+3,w
  5322  0CAB  2CAD               	goto	u2585
  5323  0CAC  2CAE               	goto	u2586
  5324  0CAD                     u2585:
  5325  0CAD  02AB               	subwf	??___flge+3,f
  5326  0CAE                     u2586:
  5327  0CAE  082B               	movf	??___flge+3,w
  5328  0CAF  00A3               	movwf	___flge@ff1+3
  5329  0CB0  082A               	movf	??___flge+2,w
  5330  0CB1  00A2               	movwf	___flge@ff1+2
  5331  0CB2  0829               	movf	??___flge+1,w
  5332  0CB3  00A1               	movwf	___flge@ff1+1
  5333  0CB4  0828               	movf	??___flge,w
  5334  0CB5  00A0               	movwf	___flge@ff1
  5335  0CB6                     l2097:
  5336  0CB6  1FA7               	btfss	___flge@ff2+3,7
  5337  0CB7  2CB9               	goto	u2591
  5338  0CB8  2CBA               	goto	u2590
  5339  0CB9                     u2591:
  5340  0CB9  2CDE               	goto	l481
  5341  0CBA                     u2590:
  5342  0CBA                     l2099:
  5343  0CBA  3000               	movlw	0
  5344  0CBB  00A8               	movwf	??___flge
  5345  0CBC  3000               	movlw	0
  5346  0CBD  00A9               	movwf	??___flge+1
  5347  0CBE  3000               	movlw	0
  5348  0CBF  00AA               	movwf	??___flge+2
  5349  0CC0  3080               	movlw	128
  5350  0CC1  00AB               	movwf	??___flge+3
  5351  0CC2  0824               	movf	___flge@ff2,w
  5352  0CC3  02A8               	subwf	??___flge,f
  5353  0CC4  0825               	movf	___flge@ff2+1,w
  5354  0CC5  1C03               	skipc
  5355  0CC6  0F25               	incfsz	___flge@ff2+1,w
  5356  0CC7  2CC9               	goto	u2601
  5357  0CC8  2CCA               	goto	u2602
  5358  0CC9                     u2601:
  5359  0CC9  02A9               	subwf	??___flge+1,f
  5360  0CCA                     u2602:
  5361  0CCA  0826               	movf	___flge@ff2+2,w
  5362  0CCB  1C03               	skipc
  5363  0CCC  0F26               	incfsz	___flge@ff2+2,w
  5364  0CCD  2CCF               	goto	u2603
  5365  0CCE  2CD0               	goto	u2604
  5366  0CCF                     u2603:
  5367  0CCF  02AA               	subwf	??___flge+2,f
  5368  0CD0                     u2604:
  5369  0CD0  0827               	movf	___flge@ff2+3,w
  5370  0CD1  1C03               	skipc
  5371  0CD2  0F27               	incfsz	___flge@ff2+3,w
  5372  0CD3  2CD5               	goto	u2605
  5373  0CD4  2CD6               	goto	u2606
  5374  0CD5                     u2605:
  5375  0CD5  02AB               	subwf	??___flge+3,f
  5376  0CD6                     u2606:
  5377  0CD6  082B               	movf	??___flge+3,w
  5378  0CD7  00A7               	movwf	___flge@ff2+3
  5379  0CD8  082A               	movf	??___flge+2,w
  5380  0CD9  00A6               	movwf	___flge@ff2+2
  5381  0CDA  0829               	movf	??___flge+1,w
  5382  0CDB  00A5               	movwf	___flge@ff2+1
  5383  0CDC  0828               	movf	??___flge,w
  5384  0CDD  00A4               	movwf	___flge@ff2
  5385  0CDE                     l481:
  5386  0CDE  3080               	movlw	128
  5387  0CDF  06A3               	xorwf	___flge@ff1+3,f
  5388  0CE0  3080               	movlw	128
  5389  0CE1  06A7               	xorwf	___flge@ff2+3,f
  5390  0CE2  0827               	movf	___flge@ff2+3,w
  5391  0CE3  0223               	subwf	___flge@ff1+3,w
  5392  0CE4  1D03               	skipz
  5393  0CE5  2CF0               	goto	u2615
  5394  0CE6  0826               	movf	___flge@ff2+2,w
  5395  0CE7  0222               	subwf	___flge@ff1+2,w
  5396  0CE8  1D03               	skipz
  5397  0CE9  2CF0               	goto	u2615
  5398  0CEA  0825               	movf	___flge@ff2+1,w
  5399  0CEB  0221               	subwf	___flge@ff1+1,w
  5400  0CEC  1D03               	skipz
  5401  0CED  2CF0               	goto	u2615
  5402  0CEE  0824               	movf	___flge@ff2,w
  5403  0CEF  0220               	subwf	___flge@ff1,w
  5404  0CF0                     u2615:
  5405  0CF0  1803               	skipnc
  5406  0CF1  2CF3               	goto	u2611
  5407  0CF2  2CF4               	goto	u2610
  5408  0CF3                     u2611:
  5409  0CF3  2CF6               	goto	l2103
  5410  0CF4                     u2610:
  5411  0CF4                     l2101:
  5412  0CF4  1003               	clrc
  5413  0CF5  2CF7               	goto	l482
  5414  0CF6                     l2103:
  5415  0CF6  1403               	setc
  5416  0CF7                     l482:
  5417  0CF7  0008               	return
  5418  0CF8                     __end_of___flge:
  5419                           
  5420                           	psect	text14
  5421  09E4                     __ptext14:	
  5422 ;; *************** function _UARTSendString *****************
  5423 ;; Defined at:
  5424 ;;		line 55 in file "UART.c"
  5425 ;; Parameters:    Size  Location     Type
  5426 ;;  str             1    wreg     PTR const unsigned char 
  5427 ;;		 -> NULL(0), ftoa@buf(17), 
  5428 ;;  max_length      1    7[COMMON] const unsigned char 
  5429 ;; Auto vars:     Size  Location     Type
  5430 ;;  str             1    1[BANK0 ] PTR const unsigned char 
  5431 ;;		 -> NULL(0), ftoa@buf(17), 
  5432 ;;  i               2    2[BANK0 ] int 
  5433 ;; Return value:  Size  Location     Type
  5434 ;;                  1    wreg      void 
  5435 ;; Registers used:
  5436 ;;		wreg, fsr0l, fsr0h, status,2, status,0, pclath, cstack
  5437 ;; Tracked objects:
  5438 ;;		On entry : 0/0
  5439 ;;		On exit  : 0/0
  5440 ;;		Unchanged: 0/0
  5441 ;; Data sizes:     COMMON   BANK0   BANK1   BANK3   BANK2
  5442 ;;      Params:         1       0       0       0       0
  5443 ;;      Locals:         0       3       0       0       0
  5444 ;;      Temps:          0       1       0       0       0
  5445 ;;      Totals:         1       4       0       0       0
  5446 ;;Total ram usage:        5 bytes
  5447 ;; Hardware stack levels used:    1
  5448 ;; Hardware stack levels required when called:    2
  5449 ;; This function calls:
  5450 ;;		_UARTSendChar
  5451 ;; This function is called by:
  5452 ;;		_main
  5453 ;; This function uses a non-reentrant model
  5454 ;;
  5455                           
  5456                           
  5457                           ;psect for function _UARTSendString
  5458  09E4                     _UARTSendString:
  5459                           
  5460                           ;incstack = 0
  5461                           ; Regs used in _UARTSendString: [wreg-fsr0h+status,2+status,0+pclath+cstack]
  5462                           ;UARTSendString@str stored from wreg
  5463  09E4  1283               	bcf	3,5	;RP0=0, select bank0
  5464  09E5  1303               	bcf	3,6	;RP1=0, select bank0
  5465  09E6  00A1               	movwf	UARTSendString@str
  5466  09E7                     l2539:
  5467                           
  5468                           ;UART.c: 56:     int i = 0;
  5469  09E7  01A2               	clrf	UARTSendString@i
  5470  09E8  01A3               	clrf	UARTSendString@i+1
  5471                           
  5472                           ;UART.c: 57:     for (i=0 ; i<max_length && str[i]!='\0' ; i++) {
  5473  09E9  01A2               	clrf	UARTSendString@i
  5474  09EA  01A3               	clrf	UARTSendString@i+1
  5475  09EB  29FF               	goto	l2545
  5476  09EC                     l2541:
  5477                           
  5478                           ;UART.c: 58:         UARTSendChar(str[i]);
  5479  09EC  0822               	movf	UARTSendString@i,w
  5480  09ED  0721               	addwf	UARTSendString@str,w
  5481  09EE  00A0               	movwf	??_UARTSendString
  5482  09EF  0820               	movf	??_UARTSendString,w
  5483  09F0  0084               	movwf	4
  5484  09F1  0800               	movf	0,w
  5485  09F2  120A  158A  20BA  120A  158A  	fcall	_UARTSendChar
  5486  09F7                     l2543:
  5487                           
  5488                           ;UART.c: 59:     }
  5489  09F7  3001               	movlw	1
  5490  09F8  1283               	bcf	3,5	;RP0=0, select bank0
  5491  09F9  1303               	bcf	3,6	;RP1=0, select bank0
  5492  09FA  07A2               	addwf	UARTSendString@i,f
  5493  09FB  1803               	skipnc
  5494  09FC  0AA3               	incf	UARTSendString@i+1,f
  5495  09FD  3000               	movlw	0
  5496  09FE  07A3               	addwf	UARTSendString@i+1,f
  5497  09FF                     l2545:
  5498  09FF  0823               	movf	UARTSendString@i+1,w
  5499  0A00  3A80               	xorlw	128
  5500  0A01  00A0               	movwf	??_UARTSendString
  5501  0A02  3080               	movlw	128
  5502  0A03  0220               	subwf	??_UARTSendString,w
  5503  0A04  1D03               	skipz
  5504  0A05  2A08               	goto	u3505
  5505  0A06  0877               	movf	UARTSendString@max_length,w
  5506  0A07  0222               	subwf	UARTSendString@i,w
  5507  0A08                     u3505:
  5508  0A08  1803               	skipnc
  5509  0A09  2A0B               	goto	u3501
  5510  0A0A  2A0C               	goto	u3500
  5511  0A0B                     u3501:
  5512  0A0B  2A19               	goto	l200
  5513  0A0C                     u3500:
  5514  0A0C                     l2547:
  5515  0A0C  1283               	bcf	3,5	;RP0=0, select bank0
  5516  0A0D  1303               	bcf	3,6	;RP1=0, select bank0
  5517  0A0E  0822               	movf	UARTSendString@i,w
  5518  0A0F  0721               	addwf	UARTSendString@str,w
  5519  0A10  00A0               	movwf	??_UARTSendString
  5520  0A11  0820               	movf	??_UARTSendString,w
  5521  0A12  0084               	movwf	4
  5522  0A13  1383               	bcf	3,7	;select IRP bank0
  5523  0A14  0800               	movf	0,w
  5524  0A15  1D03               	btfss	3,2
  5525  0A16  2A18               	goto	u3511
  5526  0A17  2A19               	goto	u3510
  5527  0A18                     u3511:
  5528  0A18  29EC               	goto	l2541
  5529  0A19                     u3510:
  5530  0A19                     l200:
  5531  0A19  0008               	return
  5532  0A1A                     __end_of_UARTSendString:
  5533                           
  5534                           	psect	text15
  5535  08BA                     __ptext15:	
  5536 ;; *************** function _UARTSendChar *****************
  5537 ;; Defined at:
  5538 ;;		line 45 in file "UART.c"
  5539 ;; Parameters:    Size  Location     Type
  5540 ;;  c               1    wreg     const unsigned char 
  5541 ;; Auto vars:     Size  Location     Type
  5542 ;;  c               1    6[COMMON] const unsigned char 
  5543 ;; Return value:  Size  Location     Type
  5544 ;;                  1    wreg      void 
  5545 ;; Registers used:
  5546 ;;		wreg
  5547 ;; Tracked objects:
  5548 ;;		On entry : 0/0
  5549 ;;		On exit  : 0/0
  5550 ;;		Unchanged: 0/0
  5551 ;; Data sizes:     COMMON   BANK0   BANK1   BANK3   BANK2
  5552 ;;      Params:         0       0       0       0       0
  5553 ;;      Locals:         1       0       0       0       0
  5554 ;;      Temps:          0       0       0       0       0
  5555 ;;      Totals:         1       0       0       0       0
  5556 ;;Total ram usage:        1 bytes
  5557 ;; Hardware stack levels used:    1
  5558 ;; Hardware stack levels required when called:    1
  5559 ;; This function calls:
  5560 ;;		Nothing
  5561 ;; This function is called by:
  5562 ;;		_main
  5563 ;;		_UARTSendString
  5564 ;; This function uses a non-reentrant model
  5565 ;;
  5566                           
  5567                           
  5568                           ;psect for function _UARTSendChar
  5569  08BA                     _UARTSendChar:
  5570                           
  5571                           ;incstack = 0
  5572                           ; Regs used in _UARTSendChar: [wreg]
  5573                           ;UARTSendChar@c stored from wreg
  5574  08BA  00F6               	movwf	UARTSendChar@c
  5575  08BB                     l2071:
  5576  08BB                     l189:	
  5577                           ;UART.c: 46:     while (TXSTAbits.TRMT == 0);
  5578                           
  5579  08BB  1683               	bsf	3,5	;RP0=1, select bank1
  5580  08BC  1303               	bcf	3,6	;RP1=0, select bank1
  5581  08BD  1C98               	btfss	24,1	;volatile
  5582  08BE  28C0               	goto	u2521
  5583  08BF  28C1               	goto	u2520
  5584  08C0                     u2521:
  5585  08C0  28BB               	goto	l189
  5586  08C1                     u2520:
  5587  08C1                     l2073:
  5588                           
  5589                           ;UART.c: 47:     TXREG = c;
  5590  08C1  0876               	movf	UARTSendChar@c,w
  5591  08C2  1283               	bcf	3,5	;RP0=0, select bank0
  5592  08C3  1303               	bcf	3,6	;RP1=0, select bank0
  5593  08C4  0099               	movwf	25	;volatile
  5594  08C5                     l192:
  5595  08C5  0008               	return
  5596  08C6                     __end_of_UARTSendChar:
  5597                           
  5598                           	psect	text16
  5599  0AD8                     __ptext16:	
  5600 ;; *************** function _UARTInit *****************
  5601 ;; Defined at:
  5602 ;;		line 14 in file "UART.c"
  5603 ;; Parameters:    Size  Location     Type
  5604 ;;  baud_rate       4   13[BANK0 ] const unsigned long 
  5605 ;;  BRGH            1   17[BANK0 ] const unsigned char 
  5606 ;; Auto vars:     Size  Location     Type
  5607 ;;		None
  5608 ;; Return value:  Size  Location     Type
  5609 ;;                  1    wreg      void 
  5610 ;; Registers used:
  5611 ;;		wreg, status,2, status,0, pclath, cstack
  5612 ;; Tracked objects:
  5613 ;;		On entry : 0/0
  5614 ;;		On exit  : 0/0
  5615 ;;		Unchanged: 0/0
  5616 ;; Data sizes:     COMMON   BANK0   BANK1   BANK3   BANK2
  5617 ;;      Params:         0       5       0       0       0
  5618 ;;      Locals:         0       0       0       0       0
  5619 ;;      Temps:          0       4       0       0       0
  5620 ;;      Totals:         0       9       0       0       0
  5621 ;;Total ram usage:        9 bytes
  5622 ;; Hardware stack levels used:    1
  5623 ;; Hardware stack levels required when called:    2
  5624 ;; This function calls:
  5625 ;;		___lldiv
  5626 ;; This function is called by:
  5627 ;;		_main
  5628 ;; This function uses a non-reentrant model
  5629 ;;
  5630                           
  5631                           
  5632                           ;psect for function _UARTInit
  5633  0AD8                     _UARTInit:
  5634  0AD8                     l2449:	
  5635                           ;incstack = 0
  5636                           ; Regs used in _UARTInit: [wreg+status,2+status,0+pclath+cstack]
  5637                           
  5638                           
  5639                           ;UART.c: 16:     if (BRGH == 0) {
  5640  0AD8  1283               	bcf	3,5	;RP0=0, select bank0
  5641  0AD9  1303               	bcf	3,6	;RP1=0, select bank0
  5642  0ADA  0831               	movf	UARTInit@BRGH,w
  5643  0ADB  1D03               	btfss	3,2
  5644  0ADC  2ADE               	goto	u3431
  5645  0ADD  2ADF               	goto	u3430
  5646  0ADE                     u3431:
  5647  0ADE  2B0E               	goto	l2455
  5648  0ADF                     u3430:
  5649  0ADF                     l2451:
  5650                           
  5651                           ;UART.c: 17:         SPBRG = 4000000/(64*baud_rate) - 1;
  5652  0ADF  082D               	movf	UARTInit@baud_rate,w
  5653  0AE0  00B2               	movwf	??_UARTInit
  5654  0AE1  082E               	movf	UARTInit@baud_rate+1,w
  5655  0AE2  00B3               	movwf	??_UARTInit+1
  5656  0AE3  082F               	movf	UARTInit@baud_rate+2,w
  5657  0AE4  00B4               	movwf	??_UARTInit+2
  5658  0AE5  0830               	movf	UARTInit@baud_rate+3,w
  5659  0AE6  00B5               	movwf	??_UARTInit+3
  5660  0AE7  3006               	movlw	6
  5661  0AE8                     u3445:
  5662  0AE8  1003               	clrc
  5663  0AE9  0DB2               	rlf	??_UARTInit,f
  5664  0AEA  0DB3               	rlf	??_UARTInit+1,f
  5665  0AEB  0DB4               	rlf	??_UARTInit+2,f
  5666  0AEC  0DB5               	rlf	??_UARTInit+3,f
  5667  0AED                     u3440:
  5668  0AED  3EFF               	addlw	-1
  5669  0AEE  1D03               	skipz
  5670  0AEF  2AE8               	goto	u3445
  5671  0AF0  0835               	movf	??_UARTInit+3,w
  5672  0AF1  00A3               	movwf	___lldiv@divisor+3
  5673  0AF2  0834               	movf	??_UARTInit+2,w
  5674  0AF3  00A2               	movwf	___lldiv@divisor+2
  5675  0AF4  0833               	movf	??_UARTInit+1,w
  5676  0AF5  00A1               	movwf	___lldiv@divisor+1
  5677  0AF6  0832               	movf	??_UARTInit,w
  5678  0AF7  00A0               	movwf	___lldiv@divisor
  5679  0AF8  3000               	movlw	0
  5680  0AF9  00A7               	movwf	___lldiv@dividend+3
  5681  0AFA  303D               	movlw	61
  5682  0AFB  00A6               	movwf	___lldiv@dividend+2
  5683  0AFC  3009               	movlw	9
  5684  0AFD  00A5               	movwf	___lldiv@dividend+1
  5685  0AFE  3000               	movlw	0
  5686  0AFF  00A4               	movwf	___lldiv@dividend
  5687  0B00  120A  158A  2270  120A  158A  	fcall	___lldiv
  5688  0B05  1283               	bcf	3,5	;RP0=0, select bank0
  5689  0B06  1303               	bcf	3,6	;RP1=0, select bank0
  5690  0B07  0820               	movf	?___lldiv,w
  5691  0B08  3EFF               	addlw	255
  5692  0B09  1683               	bsf	3,5	;RP0=1, select bank1
  5693  0B0A  1303               	bcf	3,6	;RP1=0, select bank1
  5694  0B0B  0099               	movwf	25	;volatile
  5695  0B0C                     l2453:
  5696                           
  5697                           ;UART.c: 18:         TXSTAbits.BRGH = 0;
  5698  0B0C  1118               	bcf	24,2	;volatile
  5699                           
  5700                           ;UART.c: 19:     } else {
  5701  0B0D  2B3C               	goto	l2459
  5702  0B0E                     l2455:
  5703                           
  5704                           ;UART.c: 20:         SPBRG = 4000000/(16*baud_rate) - 1;
  5705  0B0E  082D               	movf	UARTInit@baud_rate,w
  5706  0B0F  00B2               	movwf	??_UARTInit
  5707  0B10  082E               	movf	UARTInit@baud_rate+1,w
  5708  0B11  00B3               	movwf	??_UARTInit+1
  5709  0B12  082F               	movf	UARTInit@baud_rate+2,w
  5710  0B13  00B4               	movwf	??_UARTInit+2
  5711  0B14  0830               	movf	UARTInit@baud_rate+3,w
  5712  0B15  00B5               	movwf	??_UARTInit+3
  5713  0B16  3004               	movlw	4
  5714  0B17                     u3455:
  5715  0B17  1003               	clrc
  5716  0B18  0DB2               	rlf	??_UARTInit,f
  5717  0B19  0DB3               	rlf	??_UARTInit+1,f
  5718  0B1A  0DB4               	rlf	??_UARTInit+2,f
  5719  0B1B  0DB5               	rlf	??_UARTInit+3,f
  5720  0B1C                     u3450:
  5721  0B1C  3EFF               	addlw	-1
  5722  0B1D  1D03               	skipz
  5723  0B1E  2B17               	goto	u3455
  5724  0B1F  0835               	movf	??_UARTInit+3,w
  5725  0B20  00A3               	movwf	___lldiv@divisor+3
  5726  0B21  0834               	movf	??_UARTInit+2,w
  5727  0B22  00A2               	movwf	___lldiv@divisor+2
  5728  0B23  0833               	movf	??_UARTInit+1,w
  5729  0B24  00A1               	movwf	___lldiv@divisor+1
  5730  0B25  0832               	movf	??_UARTInit,w
  5731  0B26  00A0               	movwf	___lldiv@divisor
  5732  0B27  3000               	movlw	0
  5733  0B28  00A7               	movwf	___lldiv@dividend+3
  5734  0B29  303D               	movlw	61
  5735  0B2A  00A6               	movwf	___lldiv@dividend+2
  5736  0B2B  3009               	movlw	9
  5737  0B2C  00A5               	movwf	___lldiv@dividend+1
  5738  0B2D  3000               	movlw	0
  5739  0B2E  00A4               	movwf	___lldiv@dividend
  5740  0B2F  120A  158A  2270  120A  158A  	fcall	___lldiv
  5741  0B34  1283               	bcf	3,5	;RP0=0, select bank0
  5742  0B35  1303               	bcf	3,6	;RP1=0, select bank0
  5743  0B36  0820               	movf	?___lldiv,w
  5744  0B37  3EFF               	addlw	255
  5745  0B38  1683               	bsf	3,5	;RP0=1, select bank1
  5746  0B39  1303               	bcf	3,6	;RP1=0, select bank1
  5747  0B3A  0099               	movwf	25	;volatile
  5748  0B3B                     l2457:
  5749                           
  5750                           ;UART.c: 21:         TXSTAbits.BRGH = 1;
  5751  0B3B  1518               	bsf	24,2	;volatile
  5752  0B3C                     l2459:
  5753                           
  5754                           ;UART.c: 25:     TXSTAbits.TX9 = 0;
  5755  0B3C  1318               	bcf	24,6	;volatile
  5756  0B3D                     l2461:
  5757                           
  5758                           ;UART.c: 26:     TXSTAbits.TXEN = 1;
  5759  0B3D  1698               	bsf	24,5	;volatile
  5760  0B3E                     l2463:
  5761                           
  5762                           ;UART.c: 27:     TXSTAbits.SYNC = 0;
  5763  0B3E  1218               	bcf	24,4	;volatile
  5764  0B3F                     l2465:
  5765                           
  5766                           ;UART.c: 30:     RCSTAbits.SPEN = 1;
  5767  0B3F  1283               	bcf	3,5	;RP0=0, select bank0
  5768  0B40  1303               	bcf	3,6	;RP1=0, select bank0
  5769  0B41  1798               	bsf	24,7	;volatile
  5770  0B42                     l2467:
  5771                           
  5772                           ;UART.c: 31:     RCSTAbits.RX9 = 0;
  5773  0B42  1318               	bcf	24,6	;volatile
  5774  0B43                     l2469:
  5775                           
  5776                           ;UART.c: 32:     RCSTAbits.CREN = 1;
  5777  0B43  1618               	bsf	24,4	;volatile
  5778  0B44                     l2471:
  5779                           
  5780                           ;UART.c: 33:     RCSTAbits.FERR = 0;
  5781  0B44  1118               	bcf	24,2	;volatile
  5782  0B45                     l2473:
  5783                           
  5784                           ;UART.c: 34:     RCSTAbits.OERR = 0;
  5785  0B45  1098               	bcf	24,1	;volatile
  5786  0B46                     l2475:
  5787                           
  5788                           ;UART.c: 37:     TRISCbits.TRISC7 = 1;
  5789  0B46  1683               	bsf	3,5	;RP0=1, select bank1
  5790  0B47  1303               	bcf	3,6	;RP1=0, select bank1
  5791  0B48  1787               	bsf	7,7	;volatile
  5792  0B49                     l2477:
  5793                           
  5794                           ;UART.c: 38:     TRISCbits.TRISC6 = 0;
  5795  0B49  1307               	bcf	7,6	;volatile
  5796  0B4A                     l186:
  5797  0B4A  0008               	return
  5798  0B4B                     __end_of_UARTInit:
  5799                           
  5800                           	psect	text17
  5801  0A70                     __ptext17:	
  5802 ;; *************** function ___lldiv *****************
  5803 ;; Defined at:
  5804 ;;		line 5 in file "C:\Program Files\Microchip\xc8\v2.31\pic\sources\c90\common\__lldiv.c"
  5805 ;; Parameters:    Size  Location     Type
  5806 ;;  divisor         4    0[BANK0 ] unsigned long 
  5807 ;;  dividend        4    4[BANK0 ] unsigned long 
  5808 ;; Auto vars:     Size  Location     Type
  5809 ;;  quotient        4    8[BANK0 ] unsigned long 
  5810 ;;  counter         1   12[BANK0 ] unsigned char 
  5811 ;; Return value:  Size  Location     Type
  5812 ;;                  4    0[BANK0 ] unsigned long 
  5813 ;; Registers used:
  5814 ;;		wreg, status,2, status,0
  5815 ;; Tracked objects:
  5816 ;;		On entry : 0/0
  5817 ;;		On exit  : 0/0
  5818 ;;		Unchanged: 0/0
  5819 ;; Data sizes:     COMMON   BANK0   BANK1   BANK3   BANK2
  5820 ;;      Params:         0       8       0       0       0
  5821 ;;      Locals:         0       5       0       0       0
  5822 ;;      Temps:          1       0       0       0       0
  5823 ;;      Totals:         1      13       0       0       0
  5824 ;;Total ram usage:       14 bytes
  5825 ;; Hardware stack levels used:    1
  5826 ;; Hardware stack levels required when called:    1
  5827 ;; This function calls:
  5828 ;;		Nothing
  5829 ;; This function is called by:
  5830 ;;		_UARTInit
  5831 ;;		_sprintf
  5832 ;; This function uses a non-reentrant model
  5833 ;;
  5834                           
  5835                           
  5836                           ;psect for function ___lldiv
  5837  0A70                     ___lldiv:
  5838  0A70                     l1803:	
  5839                           ;incstack = 0
  5840                           ; Regs used in ___lldiv: [wreg+status,2+status,0]
  5841                           
  5842  0A70  3000               	movlw	0
  5843  0A71  1283               	bcf	3,5	;RP0=0, select bank0
  5844  0A72  1303               	bcf	3,6	;RP1=0, select bank0
  5845  0A73  00AB               	movwf	___lldiv@quotient+3
  5846  0A74  3000               	movlw	0
  5847  0A75  00AA               	movwf	___lldiv@quotient+2
  5848  0A76  3000               	movlw	0
  5849  0A77  00A9               	movwf	___lldiv@quotient+1
  5850  0A78  3000               	movlw	0
  5851  0A79  00A8               	movwf	___lldiv@quotient
  5852  0A7A  0823               	movf	___lldiv@divisor+3,w
  5853  0A7B  0422               	iorwf	___lldiv@divisor+2,w
  5854  0A7C  0421               	iorwf	___lldiv@divisor+1,w
  5855  0A7D  0420               	iorwf	___lldiv@divisor,w
  5856  0A7E  1903               	skipnz
  5857  0A7F  2A81               	goto	u1871
  5858  0A80  2A82               	goto	u1870
  5859  0A81                     u1871:
  5860  0A81  2ACF               	goto	l1823
  5861  0A82                     u1870:
  5862  0A82                     l1805:
  5863  0A82  01AC               	clrf	___lldiv@counter
  5864  0A83  0AAC               	incf	___lldiv@counter,f
  5865  0A84  2A92               	goto	l1809
  5866  0A85                     l1807:
  5867  0A85  3001               	movlw	1
  5868  0A86  00F6               	movwf	??___lldiv
  5869  0A87                     u1885:
  5870  0A87  1003               	clrc
  5871  0A88  0DA0               	rlf	___lldiv@divisor,f
  5872  0A89  0DA1               	rlf	___lldiv@divisor+1,f
  5873  0A8A  0DA2               	rlf	___lldiv@divisor+2,f
  5874  0A8B  0DA3               	rlf	___lldiv@divisor+3,f
  5875  0A8C  0BF6               	decfsz	??___lldiv,f
  5876  0A8D  2A87               	goto	u1885
  5877  0A8E  3001               	movlw	1
  5878  0A8F  00F6               	movwf	??___lldiv
  5879  0A90  0876               	movf	??___lldiv,w
  5880  0A91  07AC               	addwf	___lldiv@counter,f
  5881  0A92                     l1809:
  5882  0A92  1FA3               	btfss	___lldiv@divisor+3,7
  5883  0A93  2A95               	goto	u1891
  5884  0A94  2A96               	goto	u1890
  5885  0A95                     u1891:
  5886  0A95  2A85               	goto	l1807
  5887  0A96                     u1890:
  5888  0A96                     l1811:
  5889  0A96  3001               	movlw	1
  5890  0A97  00F6               	movwf	??___lldiv
  5891  0A98                     u1905:
  5892  0A98  1003               	clrc
  5893  0A99  0DA8               	rlf	___lldiv@quotient,f
  5894  0A9A  0DA9               	rlf	___lldiv@quotient+1,f
  5895  0A9B  0DAA               	rlf	___lldiv@quotient+2,f
  5896  0A9C  0DAB               	rlf	___lldiv@quotient+3,f
  5897  0A9D  0BF6               	decfsz	??___lldiv,f
  5898  0A9E  2A98               	goto	u1905
  5899  0A9F                     l1813:
  5900  0A9F  0823               	movf	___lldiv@divisor+3,w
  5901  0AA0  0227               	subwf	___lldiv@dividend+3,w
  5902  0AA1  1D03               	skipz
  5903  0AA2  2AAD               	goto	u1915
  5904  0AA3  0822               	movf	___lldiv@divisor+2,w
  5905  0AA4  0226               	subwf	___lldiv@dividend+2,w
  5906  0AA5  1D03               	skipz
  5907  0AA6  2AAD               	goto	u1915
  5908  0AA7  0821               	movf	___lldiv@divisor+1,w
  5909  0AA8  0225               	subwf	___lldiv@dividend+1,w
  5910  0AA9  1D03               	skipz
  5911  0AAA  2AAD               	goto	u1915
  5912  0AAB  0820               	movf	___lldiv@divisor,w
  5913  0AAC  0224               	subwf	___lldiv@dividend,w
  5914  0AAD                     u1915:
  5915  0AAD  1C03               	skipc
  5916  0AAE  2AB0               	goto	u1911
  5917  0AAF  2AB1               	goto	u1910
  5918  0AB0                     u1911:
  5919  0AB0  2AC0               	goto	l1819
  5920  0AB1                     u1910:
  5921  0AB1                     l1815:
  5922  0AB1  0820               	movf	___lldiv@divisor,w
  5923  0AB2  02A4               	subwf	___lldiv@dividend,f
  5924  0AB3  0821               	movf	___lldiv@divisor+1,w
  5925  0AB4  1C03               	skipc
  5926  0AB5  0F21               	incfsz	___lldiv@divisor+1,w
  5927  0AB6  02A5               	subwf	___lldiv@dividend+1,f
  5928  0AB7  0822               	movf	___lldiv@divisor+2,w
  5929  0AB8  1C03               	skipc
  5930  0AB9  0F22               	incfsz	___lldiv@divisor+2,w
  5931  0ABA  02A6               	subwf	___lldiv@dividend+2,f
  5932  0ABB  0823               	movf	___lldiv@divisor+3,w
  5933  0ABC  1C03               	skipc
  5934  0ABD  0F23               	incfsz	___lldiv@divisor+3,w
  5935  0ABE  02A7               	subwf	___lldiv@dividend+3,f
  5936  0ABF                     l1817:
  5937  0ABF  1428               	bsf	___lldiv@quotient,0
  5938  0AC0                     l1819:
  5939  0AC0  3001               	movlw	1
  5940  0AC1                     u1925:
  5941  0AC1  1003               	clrc
  5942  0AC2  0CA3               	rrf	___lldiv@divisor+3,f
  5943  0AC3  0CA2               	rrf	___lldiv@divisor+2,f
  5944  0AC4  0CA1               	rrf	___lldiv@divisor+1,f
  5945  0AC5  0CA0               	rrf	___lldiv@divisor,f
  5946  0AC6  3EFF               	addlw	-1
  5947  0AC7  1D03               	skipz
  5948  0AC8  2AC1               	goto	u1925
  5949  0AC9                     l1821:
  5950  0AC9  3001               	movlw	1
  5951  0ACA  02AC               	subwf	___lldiv@counter,f
  5952  0ACB  1D03               	btfss	3,2
  5953  0ACC  2ACE               	goto	u1931
  5954  0ACD  2ACF               	goto	u1930
  5955  0ACE                     u1931:
  5956  0ACE  2A96               	goto	l1811
  5957  0ACF                     u1930:
  5958  0ACF                     l1823:
  5959  0ACF  082B               	movf	___lldiv@quotient+3,w
  5960  0AD0  00A3               	movwf	?___lldiv+3
  5961  0AD1  082A               	movf	___lldiv@quotient+2,w
  5962  0AD2  00A2               	movwf	?___lldiv+2
  5963  0AD3  0829               	movf	___lldiv@quotient+1,w
  5964  0AD4  00A1               	movwf	?___lldiv+1
  5965  0AD5  0828               	movf	___lldiv@quotient,w
  5966  0AD6  00A0               	movwf	?___lldiv
  5967  0AD7                     l340:
  5968  0AD7  0008               	return
  5969  0AD8                     __end_of___lldiv:
  5970                           
  5971                           	psect	text18
  5972  08FD                     __ptext18:	
  5973 ;; *************** function _I2C_Start *****************
  5974 ;; Defined at:
  5975 ;;		line 35 in file "I2C.c"
  5976 ;; Parameters:    Size  Location     Type
  5977 ;;  add             1    wreg     unsigned char 
  5978 ;; Auto vars:     Size  Location     Type
  5979 ;;  add             1    7[COMMON] unsigned char 
  5980 ;; Return value:  Size  Location     Type
  5981 ;;                  1    wreg      void 
  5982 ;; Registers used:
  5983 ;;		wreg, status,2, status,0, pclath, cstack
  5984 ;; Tracked objects:
  5985 ;;		On entry : 0/0
  5986 ;;		On exit  : 0/0
  5987 ;;		Unchanged: 0/0
  5988 ;; Data sizes:     COMMON   BANK0   BANK1   BANK3   BANK2
  5989 ;;      Params:         0       0       0       0       0
  5990 ;;      Locals:         1       0       0       0       0
  5991 ;;      Temps:          0       0       0       0       0
  5992 ;;      Totals:         1       0       0       0       0
  5993 ;;Total ram usage:        1 bytes
  5994 ;; Hardware stack levels used:    1
  5995 ;; Hardware stack levels required when called:    3
  5996 ;; This function calls:
  5997 ;;		_I2C_Master_Wait
  5998 ;;		_I2C_Master_Write
  5999 ;; This function is called by:
  6000 ;;		_main
  6001 ;; This function uses a non-reentrant model
  6002 ;;
  6003                           
  6004                           
  6005                           ;psect for function _I2C_Start
  6006  08FD                     _I2C_Start:
  6007                           
  6008                           ;incstack = 0
  6009                           ; Regs used in _I2C_Start: [wreg+status,2+status,0+pclath+cstack]
  6010                           ;I2C_Start@add stored from wreg
  6011  08FD  00F7               	movwf	I2C_Start@add
  6012  08FE                     l2493:
  6013                           
  6014                           ;I2C.c: 36:     I2C_Master_Wait();
  6015  08FE  120A  158A  20C6  120A  158A  	fcall	_I2C_Master_Wait
  6016  0903                     l2495:
  6017                           
  6018                           ;I2C.c: 37:     SEN = 1;
  6019  0903  1683               	bsf	3,5	;RP0=1, select bank1
  6020  0904  1303               	bcf	3,6	;RP1=0, select bank1
  6021  0905  1411               	bsf	17,0	;volatile
  6022                           
  6023                           ;I2C.c: 38:     I2C_Master_Write(add);
  6024  0906  0877               	movf	I2C_Start@add,w
  6025  0907  120A  158A  20ED  120A  158A  	fcall	_I2C_Master_Write
  6026  090C                     l126:
  6027  090C  0008               	return
  6028  090D                     __end_of_I2C_Start:
  6029                           
  6030                           	psect	text19
  6031  0981                     __ptext19:	
  6032 ;; *************** function _I2C_Read *****************
  6033 ;; Defined at:
  6034 ;;		line 81 in file "I2C.c"
  6035 ;; Parameters:    Size  Location     Type
  6036 ;;  ACK_NACK        1    wreg     unsigned char 
  6037 ;; Auto vars:     Size  Location     Type
  6038 ;;  ACK_NACK        1    0[BANK0 ] unsigned char 
  6039 ;;  Data            1    1[BANK0 ] unsigned char 
  6040 ;; Return value:  Size  Location     Type
  6041 ;;                  1    wreg      unsigned char 
  6042 ;; Registers used:
  6043 ;;		wreg, status,2, status,0, pclath, cstack
  6044 ;; Tracked objects:
  6045 ;;		On entry : 0/0
  6046 ;;		On exit  : 0/0
  6047 ;;		Unchanged: 0/0
  6048 ;; Data sizes:     COMMON   BANK0   BANK1   BANK3   BANK2
  6049 ;;      Params:         0       0       0       0       0
  6050 ;;      Locals:         0       2       0       0       0
  6051 ;;      Temps:          1       0       0       0       0
  6052 ;;      Totals:         1       2       0       0       0
  6053 ;;Total ram usage:        3 bytes
  6054 ;; Hardware stack levels used:    1
  6055 ;; Hardware stack levels required when called:    2
  6056 ;; This function calls:
  6057 ;;		_I2C_ACK
  6058 ;;		_I2C_Master_Wait
  6059 ;;		_I2C_NACK
  6060 ;; This function is called by:
  6061 ;;		_main
  6062 ;; This function uses a non-reentrant model
  6063 ;;
  6064                           
  6065                           
  6066                           ;psect for function _I2C_Read
  6067  0981                     _I2C_Read:
  6068                           
  6069                           ;incstack = 0
  6070                           ; Regs used in _I2C_Read: [wreg+status,2+status,0+pclath+cstack]
  6071                           ;I2C_Read@ACK_NACK stored from wreg
  6072  0981  1283               	bcf	3,5	;RP0=0, select bank0
  6073  0982  1303               	bcf	3,6	;RP1=0, select bank0
  6074  0983  00A0               	movwf	I2C_Read@ACK_NACK
  6075  0984                     l2501:
  6076                           
  6077                           ;I2C.c: 82:     I2C_Master_Wait();
  6078  0984  120A  158A  20C6  120A  158A  	fcall	_I2C_Master_Wait
  6079  0989                     l2503:
  6080                           
  6081                           ;I2C.c: 84:     unsigned char Data;;I2C.c: 85:     RCEN = 1;
  6082  0989  1683               	bsf	3,5	;RP0=1, select bank1
  6083  098A  1303               	bcf	3,6	;RP1=0, select bank1
  6084  098B  1591               	bsf	17,3	;volatile
  6085  098C                     l159:	
  6086                           ;I2C.c: 86:     while (!BF);
  6087                           
  6088  098C  1C14               	btfss	20,0	;volatile
  6089  098D  298F               	goto	u3461
  6090  098E  2990               	goto	u3460
  6091  098F                     u3461:
  6092  098F  298C               	goto	l159
  6093  0990                     u3460:
  6094  0990                     l2505:
  6095                           
  6096                           ;I2C.c: 87:     Data = SSPBUF;
  6097  0990  1283               	bcf	3,5	;RP0=0, select bank0
  6098  0991  1303               	bcf	3,6	;RP1=0, select bank0
  6099  0992  0813               	movf	19,w	;volatile
  6100  0993  00F6               	movwf	??_I2C_Read
  6101  0994  0876               	movf	??_I2C_Read,w
  6102  0995  00A1               	movwf	I2C_Read@Data
  6103  0996                     l2507:
  6104                           
  6105                           ;I2C.c: 88:     if (ACK_NACK == 0)
  6106  0996  0820               	movf	I2C_Read@ACK_NACK,w
  6107  0997  1D03               	btfss	3,2
  6108  0998  299A               	goto	u3471
  6109  0999  299B               	goto	u3470
  6110  099A                     u3471:
  6111  099A  29A1               	goto	l2511
  6112  099B                     u3470:
  6113  099B                     l2509:
  6114                           
  6115                           ;I2C.c: 89:         I2C_ACK();
  6116  099B  120A  158A  20A8  120A  158A  	fcall	_I2C_ACK
  6117  09A0  29A6               	goto	l164
  6118  09A1                     l2511:
  6119                           
  6120                           ;I2C.c: 91:         I2C_NACK();
  6121  09A1  120A  158A  20B1  120A  158A  	fcall	_I2C_NACK
  6122  09A6                     l164:
  6123  09A6  1283               	bcf	3,5	;RP0=0, select bank0
  6124  09A7  1303               	bcf	3,6	;RP1=0, select bank0
  6125  09A8  1D8C               	btfss	12,3	;volatile
  6126  09A9  29AB               	goto	u3481
  6127  09AA  29AC               	goto	u3480
  6128  09AB                     u3481:
  6129  09AB  29A6               	goto	l164
  6130  09AC                     u3480:
  6131  09AC                     l166:
  6132                           
  6133                           ;I2C.c: 93:     SSPIF = 0;
  6134  09AC  118C               	bcf	12,3	;volatile
  6135  09AD                     l2513:
  6136                           
  6137                           ;I2C.c: 94:     return Data;
  6138  09AD  0821               	movf	I2C_Read@Data,w
  6139  09AE                     l167:
  6140  09AE  0008               	return
  6141  09AF                     __end_of_I2C_Read:
  6142                           
  6143                           	psect	text20
  6144  08B1                     __ptext20:	
  6145 ;; *************** function _I2C_NACK *****************
  6146 ;; Defined at:
  6147 ;;		line 57 in file "I2C.c"
  6148 ;; Parameters:    Size  Location     Type
  6149 ;;		None
  6150 ;; Auto vars:     Size  Location     Type
  6151 ;;		None
  6152 ;; Return value:  Size  Location     Type
  6153 ;;                  1    wreg      void 
  6154 ;; Registers used:
  6155 ;;		None
  6156 ;; Tracked objects:
  6157 ;;		On entry : 0/0
  6158 ;;		On exit  : 0/0
  6159 ;;		Unchanged: 0/0
  6160 ;; Data sizes:     COMMON   BANK0   BANK1   BANK3   BANK2
  6161 ;;      Params:         0       0       0       0       0
  6162 ;;      Locals:         0       0       0       0       0
  6163 ;;      Temps:          0       0       0       0       0
  6164 ;;      Totals:         0       0       0       0       0
  6165 ;;Total ram usage:        0 bytes
  6166 ;; Hardware stack levels used:    1
  6167 ;; Hardware stack levels required when called:    1
  6168 ;; This function calls:
  6169 ;;		Nothing
  6170 ;; This function is called by:
  6171 ;;		_I2C_Read
  6172 ;; This function uses a non-reentrant model
  6173 ;;
  6174                           
  6175                           
  6176                           ;psect for function _I2C_NACK
  6177  08B1                     _I2C_NACK:
  6178  08B1                     l2085:	
  6179                           ;incstack = 0
  6180                           ; Regs used in _I2C_NACK: []
  6181                           
  6182                           
  6183                           ;I2C.c: 58:     ACKDT = 1;
  6184  08B1  1683               	bsf	3,5	;RP0=1, select bank1
  6185  08B2  1303               	bcf	3,6	;RP1=0, select bank1
  6186  08B3  1691               	bsf	17,5	;volatile
  6187                           
  6188                           ;I2C.c: 59:     ACKEN = 1;
  6189  08B4  1611               	bsf	17,4	;volatile
  6190  08B5                     l141:	
  6191                           ;I2C.c: 60:     while (ACKEN);
  6192                           
  6193  08B5  1A11               	btfsc	17,4	;volatile
  6194  08B6  28B8               	goto	u2541
  6195  08B7  28B9               	goto	u2540
  6196  08B8                     u2541:
  6197  08B8  28B5               	goto	l141
  6198  08B9                     u2540:
  6199  08B9                     l144:
  6200  08B9  0008               	return
  6201  08BA                     __end_of_I2C_NACK:
  6202                           
  6203                           	psect	text21
  6204  08A8                     __ptext21:	
  6205 ;; *************** function _I2C_ACK *****************
  6206 ;; Defined at:
  6207 ;;		line 51 in file "I2C.c"
  6208 ;; Parameters:    Size  Location     Type
  6209 ;;		None
  6210 ;; Auto vars:     Size  Location     Type
  6211 ;;		None
  6212 ;; Return value:  Size  Location     Type
  6213 ;;                  1    wreg      void 
  6214 ;; Registers used:
  6215 ;;		None
  6216 ;; Tracked objects:
  6217 ;;		On entry : 0/0
  6218 ;;		On exit  : 0/0
  6219 ;;		Unchanged: 0/0
  6220 ;; Data sizes:     COMMON   BANK0   BANK1   BANK3   BANK2
  6221 ;;      Params:         0       0       0       0       0
  6222 ;;      Locals:         0       0       0       0       0
  6223 ;;      Temps:          0       0       0       0       0
  6224 ;;      Totals:         0       0       0       0       0
  6225 ;;Total ram usage:        0 bytes
  6226 ;; Hardware stack levels used:    1
  6227 ;; Hardware stack levels required when called:    1
  6228 ;; This function calls:
  6229 ;;		Nothing
  6230 ;; This function is called by:
  6231 ;;		_I2C_Read
  6232 ;; This function uses a non-reentrant model
  6233 ;;
  6234                           
  6235                           
  6236                           ;psect for function _I2C_ACK
  6237  08A8                     _I2C_ACK:
  6238  08A8                     l2083:	
  6239                           ;incstack = 0
  6240                           ; Regs used in _I2C_ACK: []
  6241                           
  6242                           
  6243                           ;I2C.c: 52:     ACKDT = 0;
  6244  08A8  1683               	bsf	3,5	;RP0=1, select bank1
  6245  08A9  1303               	bcf	3,6	;RP1=0, select bank1
  6246  08AA  1291               	bcf	17,5	;volatile
  6247                           
  6248                           ;I2C.c: 53:     ACKEN = 1;
  6249  08AB  1611               	bsf	17,4	;volatile
  6250  08AC                     l135:	
  6251                           ;I2C.c: 54:     while (ACKEN);
  6252                           
  6253  08AC  1A11               	btfsc	17,4	;volatile
  6254  08AD  28AF               	goto	u2531
  6255  08AE  28B0               	goto	u2530
  6256  08AF                     u2531:
  6257  08AF  28AC               	goto	l135
  6258  08B0                     u2530:
  6259  08B0                     l138:
  6260  08B0  0008               	return
  6261  08B1                     __end_of_I2C_ACK:
  6262                           
  6263                           	psect	text22
  6264  089F                     __ptext22:	
  6265 ;; *************** function _I2C_Master_RepeatedStart *****************
  6266 ;; Defined at:
  6267 ;;		line 41 in file "I2C.c"
  6268 ;; Parameters:    Size  Location     Type
  6269 ;;		None
  6270 ;; Auto vars:     Size  Location     Type
  6271 ;;		None
  6272 ;; Return value:  Size  Location     Type
  6273 ;;                  1    wreg      void 
  6274 ;; Registers used:
  6275 ;;		wreg, status,2, status,0, pclath, cstack
  6276 ;; Tracked objects:
  6277 ;;		On entry : 0/0
  6278 ;;		On exit  : 0/0
  6279 ;;		Unchanged: 0/0
  6280 ;; Data sizes:     COMMON   BANK0   BANK1   BANK3   BANK2
  6281 ;;      Params:         0       0       0       0       0
  6282 ;;      Locals:         0       0       0       0       0
  6283 ;;      Temps:          0       0       0       0       0
  6284 ;;      Totals:         0       0       0       0       0
  6285 ;;Total ram usage:        0 bytes
  6286 ;; Hardware stack levels used:    1
  6287 ;; Hardware stack levels required when called:    2
  6288 ;; This function calls:
  6289 ;;		_I2C_Master_Wait
  6290 ;; This function is called by:
  6291 ;;		_main
  6292 ;; This function uses a non-reentrant model
  6293 ;;
  6294                           
  6295                           
  6296                           ;psect for function _I2C_Master_RepeatedStart
  6297  089F                     _I2C_Master_RepeatedStart:
  6298  089F                     l2497:	
  6299                           ;incstack = 0
  6300                           ; Regs used in _I2C_Master_RepeatedStart: [wreg+status,2+status,0+pclath+cstack]
  6301                           
  6302                           
  6303                           ;I2C.c: 42:     I2C_Master_Wait();
  6304  089F  120A  158A  20C6  120A  158A  	fcall	_I2C_Master_Wait
  6305  08A4                     l2499:
  6306                           
  6307                           ;I2C.c: 43:     RSEN = 1;
  6308  08A4  1683               	bsf	3,5	;RP0=1, select bank1
  6309  08A5  1303               	bcf	3,6	;RP1=0, select bank1
  6310  08A6  1491               	bsf	17,1	;volatile
  6311  08A7                     l129:
  6312  08A7  0008               	return
  6313  08A8                     __end_of_I2C_Master_RepeatedStart:
  6314                           
  6315                           	psect	text23
  6316  08D3                     __ptext23:	
  6317 ;; *************** function _I2C_Master_Init *****************
  6318 ;; Defined at:
  6319 ;;		line 17 in file "I2C.c"
  6320 ;; Parameters:    Size  Location     Type
  6321 ;;		None
  6322 ;; Auto vars:     Size  Location     Type
  6323 ;;		None
  6324 ;; Return value:  Size  Location     Type
  6325 ;;                  1    wreg      void 
  6326 ;; Registers used:
  6327 ;;		wreg, status,2
  6328 ;; Tracked objects:
  6329 ;;		On entry : 0/0
  6330 ;;		On exit  : 0/0
  6331 ;;		Unchanged: 0/0
  6332 ;; Data sizes:     COMMON   BANK0   BANK1   BANK3   BANK2
  6333 ;;      Params:         0       0       0       0       0
  6334 ;;      Locals:         0       0       0       0       0
  6335 ;;      Temps:          0       0       0       0       0
  6336 ;;      Totals:         0       0       0       0       0
  6337 ;;Total ram usage:        0 bytes
  6338 ;; Hardware stack levels used:    1
  6339 ;; Hardware stack levels required when called:    1
  6340 ;; This function calls:
  6341 ;;		Nothing
  6342 ;; This function is called by:
  6343 ;;		_main
  6344 ;; This function uses a non-reentrant model
  6345 ;;
  6346                           
  6347                           
  6348                           ;psect for function _I2C_Master_Init
  6349  08D3                     _I2C_Master_Init:
  6350  08D3                     l2479:	
  6351                           ;incstack = 0
  6352                           ; Regs used in _I2C_Master_Init: [wreg+status,2]
  6353                           
  6354                           
  6355                           ;I2C.c: 18:     SSPCON = 0x28;
  6356  08D3  3028               	movlw	40
  6357  08D4  1283               	bcf	3,5	;RP0=0, select bank0
  6358  08D5  1303               	bcf	3,6	;RP1=0, select bank0
  6359  08D6  0094               	movwf	20	;volatile
  6360  08D7                     l2481:
  6361                           
  6362                           ;I2C.c: 19:     SSPCON2 = 0x00;
  6363  08D7  1683               	bsf	3,5	;RP0=1, select bank1
  6364  08D8  1303               	bcf	3,6	;RP1=0, select bank1
  6365  08D9  0191               	clrf	17	;volatile
  6366  08DA                     l2483:
  6367                           
  6368                           ;I2C.c: 20:     SSPSTAT = 0x00;
  6369  08DA  0194               	clrf	20	;volatile
  6370                           
  6371                           ;I2C.c: 21:     SSPADD = ((4000000 / 4) / 100000) - 1;
  6372  08DB  3009               	movlw	9
  6373  08DC  0093               	movwf	19	;volatile
  6374  08DD                     l2485:
  6375                           
  6376                           ;I2C.c: 22:     TRISCbits.TRISC3 = 1;
  6377  08DD  1587               	bsf	7,3	;volatile
  6378  08DE                     l2487:
  6379                           
  6380                           ;I2C.c: 23:     TRISCbits.TRISC4 = 1;
  6381  08DE  1607               	bsf	7,4	;volatile
  6382  08DF                     l114:
  6383  08DF  0008               	return
  6384  08E0                     __end_of_I2C_Master_Init:
  6385                           
  6386                           	psect	text24
  6387  0BC7                     __ptext24:	
  6388 ;; *************** function _I2C_MPU_Init *****************
  6389 ;; Defined at:
  6390 ;;		line 109 in file "main.c"
  6391 ;; Parameters:    Size  Location     Type
  6392 ;;		None
  6393 ;; Auto vars:     Size  Location     Type
  6394 ;;		None
  6395 ;; Return value:  Size  Location     Type
  6396 ;;                  1    wreg      void 
  6397 ;; Registers used:
  6398 ;;		wreg, status,2, status,0, pclath, cstack
  6399 ;; Tracked objects:
  6400 ;;		On entry : 0/0
  6401 ;;		On exit  : 0/0
  6402 ;;		Unchanged: 0/0
  6403 ;; Data sizes:     COMMON   BANK0   BANK1   BANK3   BANK2
  6404 ;;      Params:         0       0       0       0       0
  6405 ;;      Locals:         0       0       0       0       0
  6406 ;;      Temps:          0       0       0       0       0
  6407 ;;      Totals:         0       0       0       0       0
  6408 ;;Total ram usage:        0 bytes
  6409 ;; Hardware stack levels used:    1
  6410 ;; Hardware stack levels required when called:    3
  6411 ;; This function calls:
  6412 ;;		_I2C_Master_Start
  6413 ;;		_I2C_Master_Stop
  6414 ;;		_I2C_Master_Write
  6415 ;; This function is called by:
  6416 ;;		_main
  6417 ;; This function uses a non-reentrant model
  6418 ;;
  6419                           
  6420                           
  6421                           ;psect for function _I2C_MPU_Init
  6422  0BC7                     _I2C_MPU_Init:
  6423  0BC7                     l2489:	
  6424                           ;incstack = 0
  6425                           ; Regs used in _I2C_MPU_Init: [wreg+status,2+status,0+pclath+cstack]
  6426                           
  6427  0BC7  120A  158A  208D  120A  158A  	fcall	_I2C_Master_Start
  6428  0BCC  30D0               	movlw	208
  6429  0BCD  120A  158A  20ED  120A  158A  	fcall	_I2C_Master_Write
  6430  0BD2  306B               	movlw	107
  6431  0BD3  120A  158A  20ED  120A  158A  	fcall	_I2C_Master_Write
  6432  0BD8  3001               	movlw	1
  6433  0BD9  120A  158A  20ED  120A  158A  	fcall	_I2C_Master_Write
  6434  0BDE  120A  158A  2096  120A  158A  	fcall	_I2C_Master_Stop
  6435  0BE3  120A  158A  208D  120A  158A  	fcall	_I2C_Master_Start
  6436  0BE8  30D0               	movlw	208
  6437  0BE9  120A  158A  20ED  120A  158A  	fcall	_I2C_Master_Write
  6438  0BEE  3019               	movlw	25
  6439  0BEF  120A  158A  20ED  120A  158A  	fcall	_I2C_Master_Write
  6440  0BF4  3007               	movlw	7
  6441  0BF5  120A  158A  20ED  120A  158A  	fcall	_I2C_Master_Write
  6442  0BFA  120A  158A  2096  120A  158A  	fcall	_I2C_Master_Stop
  6443  0BFF  120A  158A  208D  120A  158A  	fcall	_I2C_Master_Start
  6444  0C04  30D0               	movlw	208
  6445  0C05  120A  158A  20ED  120A  158A  	fcall	_I2C_Master_Write
  6446  0C0A  301A               	movlw	26
  6447  0C0B  120A  158A  20ED  120A  158A  	fcall	_I2C_Master_Write
  6448  0C10  3000               	movlw	0
  6449  0C11  120A  158A  20ED  120A  158A  	fcall	_I2C_Master_Write
  6450  0C16  120A  158A  2096  120A  158A  	fcall	_I2C_Master_Stop
  6451  0C1B  120A  158A  208D  120A  158A  	fcall	_I2C_Master_Start
  6452  0C20  30D0               	movlw	208
  6453  0C21  120A  158A  20ED  120A  158A  	fcall	_I2C_Master_Write
  6454  0C26  301B               	movlw	27
  6455  0C27  120A  158A  20ED  120A  158A  	fcall	_I2C_Master_Write
  6456  0C2C  3000               	movlw	0
  6457  0C2D  120A  158A  20ED  120A  158A  	fcall	_I2C_Master_Write
  6458  0C32  120A  158A  2096  120A  158A  	fcall	_I2C_Master_Stop
  6459  0C37  120A  158A  208D  120A  158A  	fcall	_I2C_Master_Start
  6460  0C3C  30D0               	movlw	208
  6461  0C3D  120A  158A  20ED  120A  158A  	fcall	_I2C_Master_Write
  6462  0C42  301C               	movlw	28
  6463  0C43  120A  158A  20ED  120A  158A  	fcall	_I2C_Master_Write
  6464  0C48  3000               	movlw	0
  6465  0C49  120A  158A  20ED  120A  158A  	fcall	_I2C_Master_Write
  6466  0C4E  120A  158A  2096  120A  158A  	fcall	_I2C_Master_Stop
  6467  0C53                     l79:
  6468  0C53  0008               	return
  6469  0C54                     __end_of_I2C_MPU_Init:
  6470                           
  6471                           	psect	text25
  6472  08ED                     __ptext25:	
  6473 ;; *************** function _I2C_Master_Write *****************
  6474 ;; Defined at:
  6475 ;;		line 63 in file "I2C.c"
  6476 ;; Parameters:    Size  Location     Type
  6477 ;;  data            1    wreg     unsigned char 
  6478 ;; Auto vars:     Size  Location     Type
  6479 ;;  data            1    6[COMMON] unsigned char 
  6480 ;; Return value:  Size  Location     Type
  6481 ;;                  1    wreg      unsigned char 
  6482 ;; Registers used:
  6483 ;;		wreg, status,2, status,0, pclath, cstack
  6484 ;; Tracked objects:
  6485 ;;		On entry : 0/0
  6486 ;;		On exit  : 0/0
  6487 ;;		Unchanged: 0/0
  6488 ;; Data sizes:     COMMON   BANK0   BANK1   BANK3   BANK2
  6489 ;;      Params:         0       0       0       0       0
  6490 ;;      Locals:         1       0       0       0       0
  6491 ;;      Temps:          0       0       0       0       0
  6492 ;;      Totals:         1       0       0       0       0
  6493 ;;Total ram usage:        1 bytes
  6494 ;; Hardware stack levels used:    1
  6495 ;; Hardware stack levels required when called:    2
  6496 ;; This function calls:
  6497 ;;		_I2C_Master_Wait
  6498 ;; This function is called by:
  6499 ;;		_main
  6500 ;;		_I2C_MPU_Init
  6501 ;;		_I2C_Start
  6502 ;; This function uses a non-reentrant model
  6503 ;;
  6504                           
  6505                           
  6506                           ;psect for function _I2C_Master_Write
  6507  08ED                     _I2C_Master_Write:
  6508                           
  6509                           ;incstack = 0
  6510                           ; Regs used in _I2C_Master_Write: [wreg+status,2+status,0+pclath+cstack]
  6511                           ;I2C_Master_Write@data stored from wreg
  6512  08ED  00F6               	movwf	I2C_Master_Write@data
  6513  08EE                     l2067:
  6514                           
  6515                           ;I2C.c: 64:     I2C_Master_Wait();
  6516  08EE  120A  158A  20C6  120A  158A  	fcall	_I2C_Master_Wait
  6517  08F3                     l2069:
  6518                           
  6519                           ;I2C.c: 65:     SSPBUF = data;
  6520  08F3  0876               	movf	I2C_Master_Write@data,w
  6521  08F4  1283               	bcf	3,5	;RP0=0, select bank0
  6522  08F5  1303               	bcf	3,6	;RP1=0, select bank0
  6523  08F6  0093               	movwf	19	;volatile
  6524  08F7                     l147:	
  6525                           ;I2C.c: 66:     while (!SSPIF);
  6526                           
  6527  08F7  1D8C               	btfss	12,3	;volatile
  6528  08F8  28FA               	goto	u2511
  6529  08F9  28FB               	goto	u2510
  6530  08FA                     u2511:
  6531  08FA  28F7               	goto	l147
  6532  08FB                     u2510:
  6533  08FB                     l149:
  6534                           
  6535                           ;I2C.c: 67:     SSPIF = 0;
  6536  08FB  118C               	bcf	12,3	;volatile
  6537  08FC                     l150:	
  6538                           ;I2C.c: 68:     return ACKSTAT;;	Return value of _I2C_Master_Write is never used
  6539                           
  6540  08FC  0008               	return
  6541  08FD                     __end_of_I2C_Master_Write:
  6542                           
  6543                           	psect	text26
  6544  0896                     __ptext26:	
  6545 ;; *************** function _I2C_Master_Stop *****************
  6546 ;; Defined at:
  6547 ;;		line 46 in file "I2C.c"
  6548 ;; Parameters:    Size  Location     Type
  6549 ;;		None
  6550 ;; Auto vars:     Size  Location     Type
  6551 ;;		None
  6552 ;; Return value:  Size  Location     Type
  6553 ;;                  1    wreg      void 
  6554 ;; Registers used:
  6555 ;;		wreg, status,2, status,0, pclath, cstack
  6556 ;; Tracked objects:
  6557 ;;		On entry : 0/0
  6558 ;;		On exit  : 0/0
  6559 ;;		Unchanged: 0/0
  6560 ;; Data sizes:     COMMON   BANK0   BANK1   BANK3   BANK2
  6561 ;;      Params:         0       0       0       0       0
  6562 ;;      Locals:         0       0       0       0       0
  6563 ;;      Temps:          0       0       0       0       0
  6564 ;;      Totals:         0       0       0       0       0
  6565 ;;Total ram usage:        0 bytes
  6566 ;; Hardware stack levels used:    1
  6567 ;; Hardware stack levels required when called:    2
  6568 ;; This function calls:
  6569 ;;		_I2C_Master_Wait
  6570 ;; This function is called by:
  6571 ;;		_I2C_MPU_Init
  6572 ;; This function uses a non-reentrant model
  6573 ;;
  6574                           
  6575                           
  6576                           ;psect for function _I2C_Master_Stop
  6577  0896                     _I2C_Master_Stop:
  6578  0896                     l2079:	
  6579                           ;incstack = 0
  6580                           ; Regs used in _I2C_Master_Stop: [wreg+status,2+status,0+pclath+cstack]
  6581                           
  6582                           
  6583                           ;I2C.c: 47:     I2C_Master_Wait();
  6584  0896  120A  158A  20C6  120A  158A  	fcall	_I2C_Master_Wait
  6585  089B                     l2081:
  6586                           
  6587                           ;I2C.c: 48:     PEN = 1;
  6588  089B  1683               	bsf	3,5	;RP0=1, select bank1
  6589  089C  1303               	bcf	3,6	;RP1=0, select bank1
  6590  089D  1511               	bsf	17,2	;volatile
  6591  089E                     l132:
  6592  089E  0008               	return
  6593  089F                     __end_of_I2C_Master_Stop:
  6594                           
  6595                           	psect	text27
  6596  088D                     __ptext27:	
  6597 ;; *************** function _I2C_Master_Start *****************
  6598 ;; Defined at:
  6599 ;;		line 30 in file "I2C.c"
  6600 ;; Parameters:    Size  Location     Type
  6601 ;;		None
  6602 ;; Auto vars:     Size  Location     Type
  6603 ;;		None
  6604 ;; Return value:  Size  Location     Type
  6605 ;;                  1    wreg      void 
  6606 ;; Registers used:
  6607 ;;		wreg, status,2, status,0, pclath, cstack
  6608 ;; Tracked objects:
  6609 ;;		On entry : 0/0
  6610 ;;		On exit  : 0/0
  6611 ;;		Unchanged: 0/0
  6612 ;; Data sizes:     COMMON   BANK0   BANK1   BANK3   BANK2
  6613 ;;      Params:         0       0       0       0       0
  6614 ;;      Locals:         0       0       0       0       0
  6615 ;;      Temps:          0       0       0       0       0
  6616 ;;      Totals:         0       0       0       0       0
  6617 ;;Total ram usage:        0 bytes
  6618 ;; Hardware stack levels used:    1
  6619 ;; Hardware stack levels required when called:    2
  6620 ;; This function calls:
  6621 ;;		_I2C_Master_Wait
  6622 ;; This function is called by:
  6623 ;;		_I2C_MPU_Init
  6624 ;; This function uses a non-reentrant model
  6625 ;;
  6626                           
  6627                           
  6628                           ;psect for function _I2C_Master_Start
  6629  088D                     _I2C_Master_Start:
  6630  088D                     l2075:	
  6631                           ;incstack = 0
  6632                           ; Regs used in _I2C_Master_Start: [wreg+status,2+status,0+pclath+cstack]
  6633                           
  6634                           
  6635                           ;I2C.c: 31:     I2C_Master_Wait();
  6636  088D  120A  158A  20C6  120A  158A  	fcall	_I2C_Master_Wait
  6637  0892                     l2077:
  6638                           
  6639                           ;I2C.c: 32:     SEN = 1;
  6640  0892  1683               	bsf	3,5	;RP0=1, select bank1
  6641  0893  1303               	bcf	3,6	;RP1=0, select bank1
  6642  0894  1411               	bsf	17,0	;volatile
  6643  0895                     l123:
  6644  0895  0008               	return
  6645  0896                     __end_of_I2C_Master_Start:
  6646                           
  6647                           	psect	text28
  6648  08C6                     __ptext28:	
  6649 ;; *************** function _I2C_Master_Wait *****************
  6650 ;; Defined at:
  6651 ;;		line 26 in file "I2C.c"
  6652 ;; Parameters:    Size  Location     Type
  6653 ;;		None
  6654 ;; Auto vars:     Size  Location     Type
  6655 ;;		None
  6656 ;; Return value:  Size  Location     Type
  6657 ;;                  1    wreg      void 
  6658 ;; Registers used:
  6659 ;;		wreg, status,2
  6660 ;; Tracked objects:
  6661 ;;		On entry : 0/0
  6662 ;;		On exit  : 0/0
  6663 ;;		Unchanged: 0/0
  6664 ;; Data sizes:     COMMON   BANK0   BANK1   BANK3   BANK2
  6665 ;;      Params:         0       0       0       0       0
  6666 ;;      Locals:         0       0       0       0       0
  6667 ;;      Temps:          0       0       0       0       0
  6668 ;;      Totals:         0       0       0       0       0
  6669 ;;Total ram usage:        0 bytes
  6670 ;; Hardware stack levels used:    1
  6671 ;; Hardware stack levels required when called:    1
  6672 ;; This function calls:
  6673 ;;		Nothing
  6674 ;; This function is called by:
  6675 ;;		_I2C_Master_Start
  6676 ;;		_I2C_Start
  6677 ;;		_I2C_Master_RepeatedStart
  6678 ;;		_I2C_Master_Stop
  6679 ;;		_I2C_Master_Write
  6680 ;;		_I2C_Read
  6681 ;;		_I2C_Read_Byte
  6682 ;; This function uses a non-reentrant model
  6683 ;;
  6684                           
  6685                           
  6686                           ;psect for function _I2C_Master_Wait
  6687  08C6                     _I2C_Master_Wait:
  6688  08C6                     l1785:	
  6689                           ;incstack = 0
  6690                           ; Regs used in _I2C_Master_Wait: [wreg+status,2]
  6691                           
  6692  08C6                     l117:	
  6693                           ;I2C.c: 27:     while ((SSPSTAT & 0x04) || (SSPCON2 & 0x1F));
  6694                           
  6695  08C6  1683               	bsf	3,5	;RP0=1, select bank1
  6696  08C7  1303               	bcf	3,6	;RP1=0, select bank1
  6697  08C8  1914               	btfsc	20,2	;volatile
  6698  08C9  28CB               	goto	u1811
  6699  08CA  28CC               	goto	u1810
  6700  08CB                     u1811:
  6701  08CB  28C6               	goto	l117
  6702  08CC                     u1810:
  6703  08CC                     l1787:
  6704  08CC  0811               	movf	17,w	;volatile
  6705  08CD  391F               	andlw	31
  6706  08CE  1D03               	btfss	3,2
  6707  08CF  28D1               	goto	u1821
  6708  08D0  28D2               	goto	u1820
  6709  08D1                     u1821:
  6710  08D1  28C6               	goto	l117
  6711  08D2                     u1820:
  6712  08D2                     l120:
  6713  08D2  0008               	return
  6714  08D3                     __end_of_I2C_Master_Wait:
  6715                           
  6716                           	psect	text29
  6717  09AF                     __ptext29:	
  6718 ;; *************** function _isr *****************
  6719 ;; Defined at:
  6720 ;;		line 54 in file "main.c"
  6721 ;; Parameters:    Size  Location     Type
  6722 ;;		None
  6723 ;; Auto vars:     Size  Location     Type
  6724 ;;  opcionUART      1    5[COMMON] unsigned char 
  6725 ;; Return value:  Size  Location     Type
  6726 ;;                  1    wreg      void 
  6727 ;; Registers used:
  6728 ;;		wreg, fsr0l, fsr0h, status,2, status,0
  6729 ;; Tracked objects:
  6730 ;;		On entry : 0/0
  6731 ;;		On exit  : 0/0
  6732 ;;		Unchanged: 0/0
  6733 ;; Data sizes:     COMMON   BANK0   BANK1   BANK3   BANK2
  6734 ;;      Params:         0       0       0       0       0
  6735 ;;      Locals:         1       0       0       0       0
  6736 ;;      Temps:          5       0       0       0       0
  6737 ;;      Totals:         6       0       0       0       0
  6738 ;;Total ram usage:        6 bytes
  6739 ;; Hardware stack levels used:    1
  6740 ;; This function calls:
  6741 ;;		Nothing
  6742 ;; This function is called by:
  6743 ;;		Interrupt level 1
  6744 ;; This function uses a non-reentrant model
  6745 ;;
  6746                           
  6747                           
  6748                           ;psect for function _isr
  6749  09AF                     _isr:
  6750  09AF                     i1l1659:
  6751                           
  6752                           ;main.c: 55:         I2C_Master_RepeatedStart();
  6753  09AF  1283               	bcf	3,5	;RP0=0, select bank0
  6754  09B0  1303               	bcf	3,6	;RP1=0, select bank0
  6755  09B1  1E8C               	btfss	12,5	;volatile
  6756  09B2  29B4               	goto	u173_21
  6757  09B3  29B5               	goto	u173_20
  6758  09B4                     u173_21:
  6759  09B4  29DB               	goto	i1l62
  6760  09B5                     u173_20:
  6761  09B5                     i1l1661:
  6762                           
  6763                           ;main.c: 56:         I2C_Master_Write(0xD1);
  6764  09B5  081A               	movf	26,w	;volatile
  6765  09B6  00F0               	movwf	??_isr
  6766  09B7  0870               	movf	??_isr,w
  6767  09B8  00F5               	movwf	isr@opcionUART
  6768                           
  6769                           ;main.c: 57:         valor_original = (((int) I2C_Read(0) << 8) | ((I2C_Read(1))));
  6770  09B9  29C5               	goto	i1l1673
  6771  09BA                     i1l1663:
  6772                           
  6773                           ;main.c: 60:         UARTSendString(buffer, 6);
  6774  09BA  0185               	clrf	5	;volatile
  6775                           
  6776                           ;main.c: 61: 
  6777  09BB  29DB               	goto	i1l62
  6778  09BC                     i1l1665:
  6779                           
  6780                           ;main.c: 63:     }
  6781  09BC  3001               	movlw	1
  6782  09BD  0085               	movwf	5	;volatile
  6783                           
  6784                           ;main.c: 64: }
  6785  09BE  29DB               	goto	i1l62
  6786  09BF                     i1l1667:
  6787                           
  6788                           ;main.c: 66: void I2C_MPU_Init(void) {
  6789  09BF  3002               	movlw	2
  6790  09C0  0085               	movwf	5	;volatile
  6791                           
  6792                           ;main.c: 67: 
  6793  09C1  29DB               	goto	i1l62
  6794  09C2                     i1l1669:
  6795                           
  6796                           ;main.c: 69:     I2C_Master_Write(0xD0);
  6797  09C2  3003               	movlw	3
  6798  09C3  0085               	movwf	5	;volatile
  6799                           
  6800                           ;main.c: 70:     I2C_Master_Write(0x6B);
  6801  09C4  29DB               	goto	i1l62
  6802  09C5                     i1l1673:
  6803  09C5  0875               	movf	isr@opcionUART,w
  6804  09C6  00F0               	movwf	??_isr
  6805  09C7  01F1               	clrf	??_isr+1
  6806                           
  6807                           ; Switch on 2 bytes has been partitioned into a top level switch of size 1, and 1 sub-sw
      +                          itches
  6808                           ; Switch size 1, requested type "simple"
  6809                           ; Number of cases is 1, Range of values is 0 to 0
  6810                           ; switch strategies available:
  6811                           ; Name         Instructions Cycles
  6812                           ; simple_byte            4     3 (average)
  6813                           ; direct_byte           11     8 (fixed)
  6814                           ; jumptable            260     6 (fixed)
  6815                           ;	Chosen strategy is simple_byte
  6816  09C8  0871               	movf	??_isr+1,w
  6817  09C9  3A00               	xorlw	0	; case 0
  6818  09CA  1903               	skipnz
  6819  09CB  29CD               	goto	i1l2637
  6820  09CC  29DB               	goto	i1l62
  6821  09CD                     i1l2637:
  6822                           
  6823                           ; Switch size 1, requested type "simple"
  6824                           ; Number of cases is 4, Range of values is 97 to 100
  6825                           ; switch strategies available:
  6826                           ; Name         Instructions Cycles
  6827                           ; simple_byte           13     7 (average)
  6828                           ; direct_byte           23    11 (fixed)
  6829                           ; jumptable            263     9 (fixed)
  6830                           ;	Chosen strategy is simple_byte
  6831  09CD  0870               	movf	??_isr,w
  6832  09CE  3A61               	xorlw	97	; case 97
  6833  09CF  1903               	skipnz
  6834  09D0  29BA               	goto	i1l1663
  6835  09D1  3A03               	xorlw	3	; case 98
  6836  09D2  1903               	skipnz
  6837  09D3  29BC               	goto	i1l1665
  6838  09D4  3A01               	xorlw	1	; case 99
  6839  09D5  1903               	skipnz
  6840  09D6  29BF               	goto	i1l1667
  6841  09D7  3A07               	xorlw	7	; case 100
  6842  09D8  1903               	skipnz
  6843  09D9  29C2               	goto	i1l1669
  6844  09DA  29DB               	goto	i1l62
  6845  09DB                     i1l62:
  6846  09DB  0874               	movf	??_isr+4,w
  6847  09DC  008A               	movwf	10
  6848  09DD  0873               	movf	??_isr+3,w
  6849  09DE  0084               	movwf	4
  6850  09DF  0E72               	swapf	??_isr+2,w
  6851  09E0  0083               	movwf	3
  6852  09E1  0EFE               	swapf	btemp,f
  6853  09E2  0E7E               	swapf	btemp,w
  6854  09E3  0009               	retfie
  6855  09E4                     __end_of_isr:
  6856  007E                     btemp	set	126	;btemp
  6857  007E                     wtemp0	set	126
  6858                           
  6859                           	psect	intentry
  6860  0004                     __pintentry:	
  6861                           ;incstack = 0
  6862                           ; Regs used in _isr: [wreg-fsr0h+status,2+status,0]
  6863                           
  6864  0004                     interrupt_function:
  6865  007E                     saved_w	set	btemp
  6866  0004  00FE               	movwf	btemp
  6867  0005  0E03               	swapf	3,w
  6868  0006  00F2               	movwf	??_isr+2
  6869  0007  0804               	movf	4,w
  6870  0008  00F3               	movwf	??_isr+3
  6871  0009  080A               	movf	10,w
  6872  000A  00F4               	movwf	??_isr+4
  6873  000B  120A  158A  29AF   	ljmp	_isr
  6874                           
  6875                           	psect	config
  6876                           
  6877                           ;Config register CONFIG1 @ 0x2007
  6878                           ;	Oscillator Selection bits
  6879                           ;	FOSC = INTRC_NOCLKOUT, INTOSCIO oscillator: I/O function on RA6/OSC2/CLKOUT pin, I/O f
      +                          unction on RA7/OSC1/CLKIN
  6880                           ;	Watchdog Timer Enable bit
  6881                           ;	WDTE = OFF, WDT disabled and can be enabled by SWDTEN bit of the WDTCON register
  6882                           ;	Power-up Timer Enable bit
  6883                           ;	PWRTE = OFF, PWRT disabled
  6884                           ;	RE3/MCLR pin function select bit
  6885                           ;	MCLRE = OFF, RE3/MCLR pin function is digital input, MCLR internally tied to VDD
  6886                           ;	Code Protection bit
  6887                           ;	CP = OFF, Program memory code protection is disabled
  6888                           ;	Data Code Protection bit
  6889                           ;	CPD = OFF, Data memory code protection is disabled
  6890                           ;	Brown Out Reset Selection bits
  6891                           ;	BOREN = OFF, BOR disabled
  6892                           ;	Internal External Switchover bit
  6893                           ;	IESO = OFF, Internal/External Switchover mode is disabled
  6894                           ;	Fail-Safe Clock Monitor Enabled bit
  6895                           ;	FCMEN = OFF, Fail-Safe Clock Monitor is disabled
  6896                           ;	Low Voltage Programming Enable bit
  6897                           ;	LVP = OFF, RB3 pin has digital I/O, HV on MCLR must be used for programming
  6898                           ;	In-Circuit Debugger Mode bit
  6899                           ;	DEBUG = 0x1, unprogrammed default
  6900  2007                     	org	8199
  6901  2007  20D4               	dw	8404
  6902                           
  6903                           ;Config register CONFIG2 @ 0x2008
  6904                           ;	Brown-out Reset Selection bit
  6905                           ;	BOR4V = BOR40V, Brown-out Reset set to 4.0V
  6906                           ;	Flash Program Memory Self Write Enable bits
  6907                           ;	WRT = OFF, Write protection off
  6908  2008                     	org	8200
  6909  2008  3FFF               	dw	16383

Data Sizes:
    Strings     11
    Constant    40
    Data        0
    BSS         26
    Persistent  0
    Stack       0

Auto Spaces:
    Space          Size  Autos    Used
    COMMON           14      8       8
    BANK0            80     71      80
    BANK1            80      0      17
    BANK3            96      0       0
    BANK2            96      0       0

Pointer List with Targets:

    ftoa@status	PTR int  size(2) Largest target is 512
		 -> NULL(NULL[0]), RAM(DATA[512]), 

    sprintf@f	PTR const unsigned char  size(1) Largest target is 11
		 -> STR_1(CODE[11]), 

    sprintf@sp	PTR unsigned char  size(1) Largest target is 17
		 -> ftoa@buf(BANK1[17]), 

    sprintf@ap	PTR void [1] size(1) Largest target is 2
		 -> ?_sprintf(BANK0[2]), 

    ftoa@cp	PTR unsigned char  size(1) Largest target is 17
		 -> ftoa@buf(BANK1[17]), 

    UARTSendString@str	PTR const unsigned char  size(1) Largest target is 17
		 -> NULL(NULL[0]), ftoa@buf(BANK1[17]), 

    sp__ftoa	PTR unsigned char  size(1) Largest target is 17
		 -> ftoa@buf(BANK1[17]), 

    buffer	PTR unsigned char  size(1) Largest target is 17
		 -> NULL(NULL[0]), ftoa@buf(BANK1[17]), 


Critical Paths under _main in COMMON

    _main->_I2C_Start
    _main->_UARTSendString
    _sprintf->___llmod
    _sprintf->___wmul
    _sprintf->_isdigit
    ___llmod->___lldiv
    ___flmul->__Umul8_16
    _UARTSendString->_UARTSendChar
    _UARTInit->___lldiv
    _I2C_Start->_I2C_Master_Write
    _I2C_MPU_Init->_I2C_Master_Write

Critical Paths under _isr in COMMON

    None.

Critical Paths under _main in BANK0

    _main->_ftoa
    _ftoa->___fltol
    _sprintf->___llmod
    ___llmod->___lldiv
    ___fltol->___flmul
    ___flsub->___fladd
    ___flmul->___xxtofl
    _UARTInit->___lldiv

Critical Paths under _isr in BANK0

    None.

Critical Paths under _main in BANK1

    None.

Critical Paths under _isr in BANK1

    None.

Critical Paths under _main in BANK3

    None.

Critical Paths under _isr in BANK3

    None.

Critical Paths under _main in BANK2

    None.

Critical Paths under _isr in BANK2

    None.

Call Graph Tables:

 ---------------------------------------------------------------------------------
 (Depth) Function   	        Calls       Base Space   Used Autos Params    Refs
 ---------------------------------------------------------------------------------
 (0) _main                                                 4     4      0   13304
                                             67 BANK0      4     4      0
                       _I2C_MPU_Init
                    _I2C_Master_Init
           _I2C_Master_RepeatedStart
                   _I2C_Master_Write
                           _I2C_Read
                          _I2C_Start
                           _UARTInit
                       _UARTSendChar
                     _UARTSendString
                            ___flmul
                           ___xxtofl
                               _ftoa
 ---------------------------------------------------------------------------------
 (1) _ftoa                                                16    10      6    9004
                                             51 BANK0     16    10      6
                             ___flge
                            ___flmul
                            ___flneg
                            ___flsub
                            ___fltol
                           ___xxtofl
                            _sprintf
 ---------------------------------------------------------------------------------
 (2) _sprintf                                             34    25      9    2414
                                             22 BANK0     26    17      9
                            ___lldiv
                            ___llmod
                             ___wmul
                            _isdigit
 ---------------------------------------------------------------------------------
 (3) _isdigit                                              2     2      0      68
                                              6 COMMON     2     2      0
 ---------------------------------------------------------------------------------
 (3) ___wmul                                               6     2      4     396
                                              6 COMMON     2     2      0
                                              0 BANK0      4     0      4
 ---------------------------------------------------------------------------------
 (3) ___llmod                                             10     2      8     311
                                              7 COMMON     1     1      0
                                             13 BANK0      9     1      8
                            ___lldiv (ARG)
 ---------------------------------------------------------------------------------
 (2) ___xxtofl                                            14    10      4     474
                                              0 BANK0     14    10      4
 ---------------------------------------------------------------------------------
 (2) ___fltol                                             11     7      4     381
                                             40 BANK0     11     7      4
                            ___flmul (ARG)
 ---------------------------------------------------------------------------------
 (2) ___flsub                                              8     0      8    2333
                                             20 BANK0      8     0      8
                            ___fladd
                           ___xxtofl (ARG)
 ---------------------------------------------------------------------------------
 (3) ___fladd                                             20    12      8    2136
                                              0 BANK0     20    12      8
 ---------------------------------------------------------------------------------
 (2) ___flneg                                              4     0      4     121
                                              0 BANK0      4     0      4
 ---------------------------------------------------------------------------------
 (2) ___flmul                                             26    18      8    2569
                                             14 BANK0     26    18      8
                          __Umul8_16
                           ___xxtofl (ARG)
 ---------------------------------------------------------------------------------
 (3) __Umul8_16                                            9     7      2     799
                                              6 COMMON     2     0      2
                                              0 BANK0      7     7      0
 ---------------------------------------------------------------------------------
 (2) ___flge                                              12     4      8     334
                                              0 BANK0     12     4      8
 ---------------------------------------------------------------------------------
 (1) _UARTSendString                                       5     4      1     266
                                              7 COMMON     1     0      1
                                              0 BANK0      4     4      0
                       _UARTSendChar
 ---------------------------------------------------------------------------------
 (2) _UARTSendChar                                         1     1      0      22
                                              6 COMMON     1     1      0
 ---------------------------------------------------------------------------------
 (1) _UARTInit                                             9     4      5     836
                                             13 BANK0      9     4      5
                            ___lldiv
 ---------------------------------------------------------------------------------
 (3) ___lldiv                                             14     6      8     618
                                              6 COMMON     1     1      0
                                              0 BANK0     13     5      8
 ---------------------------------------------------------------------------------
 (1) _I2C_Start                                            1     1      0      44
                                              7 COMMON     1     1      0
                    _I2C_Master_Wait
                   _I2C_Master_Write
 ---------------------------------------------------------------------------------
 (1) _I2C_Read                                             3     3      0      45
                                              6 COMMON     1     1      0
                                              0 BANK0      2     2      0
                            _I2C_ACK
                    _I2C_Master_Wait
                           _I2C_NACK
 ---------------------------------------------------------------------------------
 (2) _I2C_NACK                                             0     0      0       0
 ---------------------------------------------------------------------------------
 (2) _I2C_ACK                                              0     0      0       0
 ---------------------------------------------------------------------------------
 (1) _I2C_Master_RepeatedStart                             0     0      0       0
                    _I2C_Master_Wait
 ---------------------------------------------------------------------------------
 (1) _I2C_Master_Init                                      0     0      0       0
 ---------------------------------------------------------------------------------
 (1) _I2C_MPU_Init                                         0     0      0      22
                   _I2C_Master_Start
                    _I2C_Master_Stop
                   _I2C_Master_Write
 ---------------------------------------------------------------------------------
 (2) _I2C_Master_Write                                     1     1      0      22
                                              6 COMMON     1     1      0
                    _I2C_Master_Wait
 ---------------------------------------------------------------------------------
 (2) _I2C_Master_Stop                                      0     0      0       0
                    _I2C_Master_Wait
 ---------------------------------------------------------------------------------
 (2) _I2C_Master_Start                                     0     0      0       0
                    _I2C_Master_Wait
 ---------------------------------------------------------------------------------
 (3) _I2C_Master_Wait                                      0     0      0       0
 ---------------------------------------------------------------------------------
 Estimated maximum stack depth 3
 ---------------------------------------------------------------------------------
 (Depth) Function   	        Calls       Base Space   Used Autos Params    Refs
 ---------------------------------------------------------------------------------
 (4) _isr                                                  6     6      0      15
                                              0 COMMON     6     6      0
 ---------------------------------------------------------------------------------
 Estimated maximum stack depth 4
 ---------------------------------------------------------------------------------

 Call Graph Graphs:

 _main (ROOT)
   _I2C_MPU_Init
     _I2C_Master_Start
       _I2C_Master_Wait
     _I2C_Master_Stop
       _I2C_Master_Wait
     _I2C_Master_Write
       _I2C_Master_Wait
   _I2C_Master_Init
   _I2C_Master_RepeatedStart
     _I2C_Master_Wait
   _I2C_Master_Write
     _I2C_Master_Wait
   _I2C_Read
     _I2C_ACK
     _I2C_Master_Wait
     _I2C_NACK
   _I2C_Start
     _I2C_Master_Wait
     _I2C_Master_Write
       _I2C_Master_Wait
   _UARTInit
     ___lldiv
   _UARTSendChar
   _UARTSendString
     _UARTSendChar
   ___flmul
     __Umul8_16
     ___xxtofl (ARG)
   ___xxtofl
   _ftoa
     ___flge
     ___flmul
       __Umul8_16
       ___xxtofl (ARG)
     ___flneg
     ___flsub
       ___fladd
       ___xxtofl (ARG)
     ___fltol
       ___flmul (ARG)
         __Umul8_16
         ___xxtofl (ARG)
     ___xxtofl
     _sprintf
       ___lldiv
       ___llmod
         ___lldiv (ARG)
       ___wmul
       _isdigit

 _isr (ROOT)

 Address spaces:
Name               Size   Autos  Total    Cost      Usage
BITCOMMON            E      0       0       0        0.0%
EEDATA             100      0       0       0        0.0%
NULL                 0      0       0       0        0.0%
CODE                 0      0       0       0        0.0%
COMMON               E      8       8       1       57.1%
BITSFR0              0      0       0       1        0.0%
SFR0                 0      0       0       1        0.0%
BITSFR1              0      0       0       2        0.0%
SFR1                 0      0       0       2        0.0%
STACK                0      0       0       2        0.0%
ABS                  0      0      69       3        0.0%
BITBANK0            50      0       0       4        0.0%
BITSFR3              0      0       0       4        0.0%
SFR3                 0      0       0       4        0.0%
BANK0               50     47      50       5      100.0%
BITSFR2              0      0       0       5        0.0%
SFR2                 0      0       0       5        0.0%
BITBANK1            50      0       0       6        0.0%
BANK1               50      0      11       7       21.2%
BITBANK3            60      0       0       8        0.0%
BANK3               60      0       0       9        0.0%
BITBANK2            60      0       0      10        0.0%
BANK2               60      0       0      11        0.0%
DATA                 0      0      69      12        0.0%


Microchip Technology PIC Macro Assembler V2.31 build 20201012212115 
Symbol Table                                                                                   Sat Mar 06 17:30:29 2021

                UARTInit@baud_rate 002D                                  pc 0002  
               __size_of_I2C_Start 0010                                 _BF 04A0  
                               l71 072B                                 l68 071F  
                               l79 0C53              __size_of_I2C_MPU_Init 008D  
                               fsr 0004                ___wmul@multiplicand 0022  
              __Umul8_16@word_mpld 0024                                l120 08D2  
                              l200 0A19                                l114 08DF  
                              l123 0895                                l132 089E  
                              l117 08C6                                l141 08B5  
                              l150 08FC                                l126 090C  
                              l135 08AC                                l144 08B9  
                              l304 093F                                l129 08A7  
                              l138 08B0                                l306 0957  
                              l147 08F7                                l164 09A6  
                              l340 0AD7                                l500 0BC6  
                              l149 08FB                                l166 09AC  
                              l167 09AE                                l159 098C  
                              l192 08C5                                l601 0491  
                              l186 0B4A                                l610 060E  
                              l603 0468                                l189 08BB  
                              l622 0580                                l526 0A6F  
                              l631 05E0                                l712 096E  
                              l640 060E                                l481 0CDE  
                              l705 037A                                l482 0CF7  
                              l714 0980                                l618 055C  
                              l490 0BC6                                l643 0930  
                              l628 05A2                                l813 07FD  
                              l478 0C72                                l486 08EC  
                              l750 0D7D                                l639 0602  
                              l751 0D89                                l743 0D61  
                              l808 0FFF                                l760 06E3  
                              l497 0BB1                                l737 0D1C  
                              l739 0DB3                                l693 0386  
                              l597 03EA                                l786 0E76  
                              l699 02F2                                l797 0F46  
                              l789 0E9C                                _PEN 048A  
                              _SEN 0488                    __end_of_I2C_ACK 08B1  
                              _isr 09AF                                fsr0 0004  
                              indf 0000                       ___flmul@aexp 0040  
                     ___flmul@bexp 0041                       ___flmul@sign 003B  
                     ___flmul@temp 0046                       ___flmul@prod 0042  
                     ___fltol@exp1 0052                               l2001 0590  
                             l2003 0594                               l2101 0CF4  
                             l2021 05DC                               l2013 05A7  
                             l2005 0595                               l2103 0CF6  
                             l2111 08EC                               l2031 05F8  
                             l2023 05E5                               l2015 05AC  
                             l2007 0599                               l2041 095B  
                             l2201 0093                               l2033 05FC  
                             l2025 05EA                               l2017 05BA  
                             l2009 059F                               l2121 0B61  
                             l2051 097C                               l2043 095D  
                             l2211 0115                               l2203 00A3  
                             l2107 08E0                               l2035 05FE  
                             l2027 05F2                               l2019 05BE  
                             l2131 0B85                               l2123 0B76  
                             l2115 0B4B                               l2045 0964  
                             l2221 0183                               l2213 0131  
                             l2205 00B0                               l2109 08EA  
                             l2037 0609                               l2029 05F7  
                             l2125 0B77                               l2117 0B58  
                             l2301 0D04                               l2061 07FA  
                             l2071 08BB                               l2047 0968  
                             l2231 0213                               l2223 0193  
                             l2215 014D                               l2207 00CD  
                             l2039 060D                               l2151 090D  
                             l2127 0B7F                               l2311 0D32  
                             l2303 0D14                               l2063 07FC  
                             l2055 07ED                               l2081 089B  
                             l2073 08C1                               l2049 0977  
                             l2241 02A7                               l2233 0223  
                             l2225 01B0                               l2217 0156  
                             l2209 00E9                               l2161 0033  
                             l2153 0911                               l2145 0BA6  
                             l2137 0B8D                               l2129 0B81  
                             l2321 0D68                               l2313 0D3F  
                             l2305 0D24                               l2057 07EE  
                             l2075 088D                               l2067 08EE  
                             l2083 08A8                               l2091 0C86  
                             l2251 02CC                               l2243 02B5  
                             l2235 0250                               l2227 01C9  
                             l2219 0166                               l2171 004A  
                             l2163 0037                               l2147 0BB6  
                             l2139 0B9F                               l2331 0DA1  
                             l2323 0D73                               l2315 0D46  
                             l2059 07F4                               l2411 0F1C  
                             l2077 0892                               l2069 08F3  
                             l2085 08B1                               l2501 0984  
                             l2093 0C8E                               l2261 02EF  
                             l2245 02BE                               l2253 02D2  
                             l2237 0276                               l2229 01E6  
                             l2181 0063                               l2173 004C  
                             l2165 0038                               l2157 0026  
                             l2149 0BBB                               l2333 0DA6  
                             l2325 0D77                               l2317 0D4A  
                             l2309 0D2D                               l2421 0F5F  
                             l2413 0F27                               l2405 0EDB  
                             l2341 0DB7                               l2079 0896  
                             l2511 09A1                               l2503 0989  
                             l2095 0C92                               l2087 0C54  
                             l2271 030E                               l2255 02D6  
                             l2247 02C2                               l2239 029E  
                             l2191 0078                               l2183 0064  
                             l2175 0054                               l2167 003D  
                             l2159 002D                               l2335 0DAA  
                             l2327 0D81                               l2319 0D58  
                             l2431 0F81                               l2423 0F63  
                             l2415 0F2E                               l2351 0DD1  
                             l2343 0DBC                               l2513 09AD  
                             l2505 0990                               l2097 0CB6  
                             l2089 0C6A                               l2281 0354  
                             l2273 0327                               l2265 02F7  
                             l2257 02D7                               l2249 02C3  
                             l2193 0080                               l2185 0069  
                             l2177 0059                               l2169 0042  
                             l2337 0DAB                               l2329 0D8B  
                             l2433 0FD0                               l2425 0F69  
                             l2417 0F3D                               l2409 0F12  
                             l2441 0FFB                               l2361 0E11  
                             l2353 0DE1                               l2345 0DC2  
                             l2521 062E                               l2507 0996  
                             l1811 0A96                               l1803 0A70  
                             l2451 0ADF                               l2099 0CBA  
                             l2291 0373                               l2283 035E  
                             l2267 02FC                               l2275 032D  
                             l2259 02DB                               l2195 0085  
                             l2187 006E                               l2179 005F  
                             l2435 0FD7                               l2427 0F70  
                             l2419 0F53                               l2371 0E4B  
                             l2355 0DE5                               l2363 0E21  
                             l2347 0DC9                               l2531 069A  
                             l2523 0637                               l2509 099B  
                             l1821 0AC9                               l1813 0A9F  
                             l1805 0A82                               l2461 0B3D  
                             l2453 0B0C                               l2541 09EC  
                             l2293 037E                               l2285 0360  
                             l2277 033A                               l2269 030A  
                             l2197 008A                               l2189 0076  
                             l1901 0404                               l2429 0F74  
                             l2437 0FDB                               l2373 0E5E  
                             l2365 0E2F                               l2357 0DFA  
                             l2349 0DCE                               l2533 06C8  
                             l2525 063B                               l2517 060F  
                             l1815 0AB1                               l1807 0A85  
                             l1823 0ACF                               l2471 0B44  
                             l2463 0B3E                               l2455 0B0E  
                             l2543 09F7                               l2287 036E  
                             l2279 0345                               l1911 0418  
                             l1903 0408                               l1831 0A27  
                             l2391 0EC1                               l2383 0E7D  
                             l2375 0E62                               l2367 0E33  
                             l2359 0E0D                               l2439 0FE9  
                             l2535 06E2                               l2527 0652  
                             l2519 0615                               l2551 06F2  
                             l2481 08D7                               l1817 0ABF  
                             l1809 0A92                               l2473 0B45  
                             l2465 0B3F                               l2457 0B3B  
                             l2449 0AD8                               l2545 09FF  
                             l2289 0372                               l1921 042C  
                             l1913 041C                               l1905 040C  
                             l2297 0CFB                               l1841 0A61  
                             l1833 0A34                               l2393 0EC5  
                             l2385 0EA0                               l2369 0E36  
                             l2377 0E73                               l2529 066B  
                             l2561 070B                               l2553 06F5  
                             l2483 08DA                               l1819 0AC0  
                             l2475 0B46                               l2467 0B42  
                             l2459 0B3C                               l2547 0A0C  
                             l2539 09E7                               l1931 046C  
                             l1923 0430                               l1915 0420  
                             l1907 0410                               l1851 0394  
                             l2299 0D00                               l1835 0A38  
                             l1843 0A67                               l1827 0A1A  
                             l2395 0ECB                               l2387 0EAE  
                             l2635 0E91                               l2379 0E78  
                             l2571 0725                               l2563 070E  
                             l2555 06F6                               l2485 08DD  
                             l2493 08FE                               l2477 0B49  
                             l2469 0B43                               l1941 0485  
                             l1933 0475                               l1917 0424  
                             l1909 0414                               l1925 0434  
                             l1861 03AB                               l1853 0398  
                             l1837 0A4A                               l1829 0A24  
                             l2397 0ED3                               l2389 0EB3  
                             l2581 079F                               l2573 0731  
                             l2565 070F                               l2557 0707  
                             l2549 06E4                               l2487 08DE  
                             l2479 08D3                               l2495 0903  
                             l1951 04A3                               l1935 0477  
                             l1943 0489                               l1927 0435  
                             l1919 0428                               l1871 03C1  
                             l1863 03AC                               l1855 0399  
                             l1847 0387                               l1839 0A58  
                             l1791 0933                               l2399 0ED9  
                             l2583 07A9                               l2575 073C  
                             l2567 0714                               l2559 070A  
                             l1785 08C6                               l2489 0BC7  
                             l2497 089F                               l1961 04CD  
                             l1953 04BA                               l1945 0495  
                             l1937 047B                               l1929 044C  
                             l1881 03D2                               l1873 03C2  
                             l1857 039E                               l1865 03AE  
                             l1849 038E                               l1793 0939  
                             l2577 0759                               l2569 0719  
                             l1787 08CC                               l2499 08A4  
                             l1971 04F6                               l1963 04D1  
                             l1955 04BE                               l1947 049A  
                             l1939 047C                               l1891 03F0  
                             l1883 03D7                               l1875 03C8  
                             l1867 03B6                               l1859 03A3  
                             l1795 0946                               l2579 0789  
                             l1981 0564                               l1973 0534  
                             l1965 04D2                               l1957 04C2  
                             l1893 03F4                               l1885 03DF  
                             l1877 03CC                               l1869 03BB  
                             l1797 094D                               l1789 0931  
                             l1991 057F                               l1983 0569  
                             l1975 053A                               l1967 04DB  
                             l1959 04CB                               l1895 03F8  
                             l1887 03E0                               l1879 03CD  
                             l1799 0953                               l1993 0584  
                             l1977 053F                               l1969 04E0  
                             l1897 03FC                               l1889 03E2  
                             l1995 0587                               l1987 0572  
                             l1979 054E                               l1899 0400  
                             l1997 0589                               l1989 057B  
                             l1999 058E                               ?_isr 0070  
                             STR_1 07E1                               u2000 0398  
                             u2001 0397                               u2010 039E  
                             u2011 039D                               u2100 0457  
                             u2020 03A3                               u2101 0455  
                             u2021 03A2                               u2110 0458  
                             u2030 03C1                               u2031 03C0  
                             u3000 02D6                               u2200 04C2  
                             u2120 046C                               u2040 03CC  
                             u3001 02D5                               u2201 04C1  
                             u2121 046B                               u2041 03CB  
                             u3010 02DB                               u2210 04D1  
                             u2130 047B                               u2050 03D2  
                             u3011 02DA                               u2211 04D0  
                             u2131 047A                               u2051 03D1  
                             u3020 02EF                               u2300 057F  
                             u2060 03D7                               u3100 0D00  
                             u3021 02EE                               u2301 057E  
                             u2061 03D6                               u3101 0CFF  
                             u3030 02F6                               u2310 0584  
                             u2230 04F6                               u2150 0491  
                             u2070 03F0                               u3110 0D04  
                             u3031 02F5                               u2311 0583  
                             u2231 04F5                               u2151 0490  
                             u2071 03EF                               u3111 0D03  
                             u3040 02FC                               u2400 05DC  
                             u2320 058E                               u2160 0495  
                             u2080 03F4                               u3200 0D81  
                             u3120 0D24                               u3041 02FB  
                             u2401 05DB                               u2321 058D  
                             u2241 050D                               u2233 04F2  
                             u2225 04D4                               u2161 0494  
                             u2145 047E                               u2081 03F3  
                             u3201 0D80                               u3121 0D23  
                             u3050 030E                               u2410 05E5  
                             u2330 0594                               u2250 0521  
                             u2242 050E                               u2170 049A  
                             u2090 044C                               u3210 0D96  
                             u3051 030D                               u2411 05E4  
                             u2331 0593                               u2251 0522  
                             u2243 0513                               u2171 0499  
                             u2091 044B                               u3060 031D  
                             u2420 05EA                               u2340 0599  
                             u2260 053F                               u2252 0527  
                             u2244 0514                               u3220 0DA6  
                             u3140 0D45                               u2500 07FA  
                             u3300 0ECB                               u2421 05E9  
                             u2341 0598                               u2261 053E  
                             u2253 0528                               u2245 0519  
                             u2181 04AC                               u3221 0DA5  
                             u3141 0D44                               u2501 07F9  
                             u3301 0ECA                               u2510 08FB  
                             u3070 033A                               u2430 05F7  
                             u2350 059F                               u2270 0564  
                             u2246 051A                               u2190 04BE  
                             u2182 04B3                               u3230 0DAA  
                             u3310 0ED3                               u2511 08FA  
                             u3071 0339                               u2431 05F6  
                             u2351 059E                               u2271 0563  
                             u2191 04BD                               u2183 04BA  
                             u2095 0448                               u3231 0DA9  
                             u3215 0D91                               u3135 0D37  
                             u3311 0ED2                               u2520 08C1  
                             u3080 0354                               u2440 05FC  
                             u2360 05A6                               u2280 0569  
                             u3160 0D67                               u3240 0DC2  
                             u2521 08C0                               u2601 0CC9  
                             u3081 0353                               u3065 0318  
                             u2441 05FB                               u2361 05A5  
                             u2281 0568                               u3161 0D66  
                             u3241 0DC1                               u1810 08CC  
                             u2530 08B0                               u2610 0CF4  
                             u2602 0CCA                               u3090 0372  
                             u2450 060D                               u2370 05AC  
                             u3410 0FE9                               u3330 0F11  
                             u3250 0DE1                               u1811 08CB  
                             u2531 08AF                               u2611 0CF3  
                             u2603 0CCF                               u3091 0371  
                             u3075 0336                               u2451 060C  
                             u2371 05AB                               u3155 0D59  
                             u3411 0FE8                               u3331 0F10  
                             u3251 0DE0                               u1820 08D2  
                             u2540 08B9                               u3500 0A0C  
                             u2604 0CD0                               u2460 0968  
                             u2620 08EA                               u2380 05BE  
                             u3180 0D77                               u3420 0FFB  
                             u3340 0F1C                               u3260 0E21  
                             u1821 08D1                               u2541 08B8  
                             u3501 0A0B                               u2605 0CD5  
                             u2461 0967                               u3085 0350  
                             u2621 08E9                               u2381 05BD  
                             u3181 0D76                               u3421 0FFA  
                             u3405 0F8C                               u3341 0F1B  
                             u3325 0EDE                               u3261 0E20  
                             u1910 0AB1                               u3430 0ADF  
                             u3510 0A19                               u2606 0CD6  
                             u2550 0C6A                               u2390 05CD  
                             u2710 0BB6                               u2630 0B58  
                             u3190 0D7D                               u1830 0939  
                             u3350 0F27                               u3270 0E2F  
                             u1911 0AB0                               u3431 0ADE  
                             u3511 0A18                               u2615 0CF0  
                             u2551 0C69                               u2295 0574  
                             u2711 0BB5                               u2631 0B57  
                             u3191 0D7C                               u3175 0D6C  
                             u1831 0938                               u3351 0F26  
                             u3335 0F0D                               u3271 0E2E  
                             u3440 0AED                               u2560 0C86  
                             u2480 097C                               u2800 008A  
                             u2720 0BBB                               u2640 0B6F  
                             u3360 0F3D                               u3280 0E72  
                             u3520 0725                               u1905 0A98  
                             u3505 0A08                               u2561 0C85  
                             u2481 097B                               u2801 0089  
                             u2721 0BBA                               u2705 0BA8  
                             u3361 0F3C                               u3281 0E71  
                             u3521 0724                               u1930 0ACF  
                             u3450 0B1C                               u2570 0C92  
                             u2730 0037                               u2650 0B85  
                             u2490 07F4                               u3370 0F53  
                             u3290 0EA0                               u3530 0731  
                             u1931 0ACE                               u1915 0AAD  
                             u2571 0C91                               u2475 096F  
                             u2811 00DB                               u2731 0036  
                             u2395 05C8                               u2651 0B84  
                             u2491 07F3                               u3371 0F52  
                             u3355 0F23                               u3291 0E9F  
                             u3531 0730                               u3460 0990  
                             u2812 00E2                               u2740 003D  
                             u2660 0B8C                               u1940 0A24  
                             u1860 0953                               u3380 0F69  
                             u3461 098F                               u1925 0AC1  
                             u3445 0AE8                               u2581 0CA1  
                             u2901 0205                               u2821 00F7  
                             u2813 00E9                               u2741 003C  
                             u2661 0B8B                               u2645 0B6A  
                             u1941 0A23                               u1861 0952  
                             u1845 0940                               u3381 0F68  
                             u3365 0F39                               u3470 099B  
                             u1870 0A82                               u2590 0CBA  
                             u2582 0CA2                               u2902 020C  
                             u2822 00FE                               u2750 0042  
                             u3390 0F80                               u3471 099A  
                             u1871 0A81                               u3455 0B17  
                             u2591 0CB9                               u2583 0CA7  
                             u2911 0232                               u2903 0213  
                             u2831 0123                               u2823 0105  
                             u2751 0041                               u1855 0947  
                             u3391 0F7F                               u3375 0F4F  
                             u3480 09AC                               u2584 0CA8  
                             u2920 025C                               u2912 0239  
                             u2832 012A                               u2760 0063  
                             u2680 0B9E                               u1960 0A38  
                             u3481 09AB                               u2585 0CAD  
                             u2913 0240                               u2841 013F  
                             u2833 0131                               u2761 0062  
                             u2681 0B9D                               u1961 0A37  
                             u1890 0A96                               u2586 0CAE  
                             u2842 0146                               u2770 0069  
                             u2690 0BA5                               u1970 0A4A  
                             u3490 062E                               u1891 0A95  
                             u2931 0268                               u2843 014D  
                             u2771 0068                               u2691 0BA4  
                             u2675 0B8E                               u1971 0A49  
                             u1955 0A29                               u3491 062D  
                             u2940 0284                               u2932 026F  
                             u2780 006E                               u1885 0A87  
                             u2933 0276                               u2925 0257  
                             u2861 0175                               u2781 006D  
                             u3557 06EC                               u2862 017C  
                             u2790 0085                               u1990 0A67  
                             u2951 0290                               u2871 01A2  
                             u2863 0183                               u2855 014F  
                             u2791 0084                               u1991 0A66  
                             u1975 0A46                               u2952 0297  
                             u2872 01A9                               u2953 029E  
                             u2945 027F                               u2873 01B0  
                             u1985 0A59                               u2891 01D8  
                             u2980 02C2                               u2892 01DF  
                             _RCEN 048B                               u2981 02C1  
                             u2965 02A0                               u2893 01E6  
                             u2885 01B2                               i1l62 09DB  
                             u2975 02B7                               u2995 02C5  
                             _RSEN 0489                   __end_of_I2C_NACK 08BA  
 __end_of_I2C_Master_RepeatedStart 08A8                               _main 06E4  
                             _ftoa 060F                   __end_of_I2C_Read 09AF  
                             btemp 007E                               start 000E  
                     _I2C_MPU_Init 0BC7                              ??_isr 0070  
                 ?_I2C_Master_Init 0070                   ?_I2C_Master_Wait 0070  
                 ?_I2C_Master_Stop 0070                      ___fltol@sign1 0051  
                  __end_of___fladd 060F                              ?_main 0070  
                            _ACKEN 048C                              ?_ftoa 0053  
                            _ACKDT 048D                    __end_of___flneg 08ED  
                  __end_of___flmul 0387                    __end_of___flsub 0931  
                  __end_of___fltol 0BC7                              _ANSEL 0188  
                  __end_of___lldiv 0AD8                    __end_of___llmod 0A70  
                            _RCREG 001A                              _SPBRG 0099  
                            _PORTA 0005                              _SSPIF 0063  
                            _TXREG 0019                   __end_of_UARTInit 0B4B  
                  __end_of_dpowers 07E1                    __end_of_isdigit 07FE  
                            ftoa@f 0053                              ftoa@l 005E  
                __end_of_I2C_Start 090D                              pclath 000A  
                            status 0003                              wtemp0 007E  
                  __end_of_sprintf 1000                    __initialization 0011  
                     __end_of_main 07B3                       __end_of_ftoa 06E4  
                        ??_I2C_ACK 0076                             ??_main 0063  
                           ??_ftoa 0059                  ?_I2C_Master_Start 0070  
                ?_I2C_Master_Write 0070                 ??_I2C_Master_Start 0076  
               ??_I2C_Master_Write 0076                   ___llmod@dividend 0031  
                           _ANSELH 0189                             i1l1661 09B5  
                           i1l1663 09BA                             i1l1665 09BC  
                           i1l1673 09C5                             i1l1667 09BF  
                           i1l1659 09AF                             i1l2637 09CD  
                           i1l1669 09C2                             u173_20 09B5  
                           u173_21 09B4                             _SSPADD 0093  
                           _SSPCON 0014                             _SSPBUF 0013  
                 __end_of___xxtofl 0DB4           _I2C_Master_RepeatedStart 089F  
                           ___flge 0C54                   I2C_Read@ACK_NACK 0020  
                        ??___fladd 0028                             ___wmul 0931  
                        ??___flneg 0076                          ??___flmul 0036  
                        ??___flsub 0076                          ??___fltol 004C  
                        ??___lldiv 0076                          ??___llmod 0077  
                           _buffer 006F            __size_of_UARTSendString 0036  
                           _status 006B                             ftoa@cp 0062  
                        ?_I2C_NACK 0070                          ??_isdigit 0076  
                        ?_I2C_Read 0070                 __size_of__Umul8_16 0029  
                           saved_w 007E                    _valor_arreglado 0067  
                        ??_sprintf 003F                         ___flge@ff1 0020  
                       ___flge@ff2 0024                       ___xxtofl@arg 002A  
                     ___xxtofl@exp 0029                       ___xxtofl@val 0020  
          __end_of__initialization 0022                         ___flneg@f1 0020  
                       ___fltol@f1 0048                     __pcstackCOMMON 0070  
                        ?_UARTInit 002D                         ??_I2C_NACK 0076  
                       ??_I2C_Read 0076           UARTSendString@max_length 0077  
                     sprintf@width 004B                         __pbssBANK0 0067  
                       __pbssBANK1 00A0                       I2C_Read@Data 0021  
                __end_of__Umul8_16 0981                         __pmaintext 06E4  
                          ?___flge 0020                            ?___wmul 0020  
                       ??_UARTInit 0032                         __pintentry 0004  
                          _I2C_ACK 08A8                            _ACKSTAT 048E  
                        ?___xxtofl 0020                            _SSPCON2 0091  
                          _SSPSTAT 0094                         __stringtab 07B3  
                    ?_UARTSendChar 0070                       I2C_Start@add 0077  
                        _I2C_Start 08FD                    __size_of___flge 00A4  
                          ___fladd 0387                            ___flneg 08E0  
                          ___flmul 0026                            ___flsub 090D  
                          ___fltol 0B4B                            ___lldiv 0A70  
                  __size_of___wmul 0027                            ___llmod 0A1A  
                   _UARTSendString 09E4                            __ptext1 060F  
                          __ptext2 0DB4                            __ptext3 07EC  
                          __ptext4 0931                            __ptext5 0A1A  
                          __ptext6 0CF8                            __ptext7 0B4B  
                          __ptext8 090D                            __ptext9 0387  
                          _dpowers 07B9                            _isdigit 07EC  
                     __size_of_isr 0035                         ??___xxtofl 0024  
         __size_of_I2C_Master_Init 000D           __size_of_I2C_Master_Wait 000D  
         __size_of_I2C_Master_Stop 0009                            _sprintf 0DB4  
                          clrloop0 0886               end_of_initialization 0022  
                   ??_UARTSendChar 0076                            ftoa@buf 00A0  
                          ftoa@rem 005A         ??_I2C_Master_RepeatedStart 0076  
                       ?_I2C_Start 0070          __size_of_I2C_Master_Start 0009  
        __size_of_I2C_Master_Write 0010                    ___lldiv@divisor 0020  
                  ___lldiv@counter 002C                          _RCSTAbits 0018  
           __end_of_UARTSendString 0A1A                          _PORTAbits 0005  
                      ___fladd@grs 0033                      ___xxtofl@sign 0028  
                        _TRISAbits 0085                  __size_of_I2C_NACK 0009  
                        _TRISCbits 0087                  __size_of_I2C_Read 002E  
                      ___flmul@grs 003C                          _TXSTAbits 0098  
                  ?_UARTSendString 0077                     __end_of___flge 0CF8  
                   __end_of___wmul 0958                  __size_of_UARTInit 0073  
              start_initialization 0011                        __end_of_isr 09E4  
                       ftoa@status 0057                  ??_I2C_Master_Init 0076  
                ??_I2C_Master_Wait 0076                  ??_I2C_Master_Stop 0076  
                  ___llmod@divisor 002D                        ??_I2C_Start 0077  
                  ___llmod@counter 0035                      ?_I2C_MPU_Init 0070  
                         ??___flge 0028                           ??___wmul 0076  
                        __Umul8_16 0958                           ?_I2C_ACK 0070  
             __end_of_UARTSendChar 08C6                          ___fladd@a 0024  
                        ___fladd@b 0020                          ___flmul@a 0032  
                        ___flmul@b 002E                          ___flsub@a 0034  
                        ___flsub@b 0038                          ___latbits 0002  
                    __pcstackBANK0 0020                  __size_of___xxtofl 00BC  
                   _valor_original 006D                        sprintf@flag 0044  
                      sprintf@prec 004D                     ??_I2C_MPU_Init 0077  
                 _I2C_Master_Start 088D                   _I2C_Master_Write 08ED  
                    UARTSendChar@c 0076                           ?___fladd 0020  
                         ?___flneg 0020                           ?___flmul 002E  
                         ?___flsub 0034                           ?___fltol 0048  
                         ?___lldiv 0020                           ?___llmod 002D  
                       ?__Umul8_16 0076               I2C_Master_Write@data 0076  
                        __pstrings 07B3                           _I2C_NACK 08B1  
                         ?_isdigit 0070                           _I2C_Read 0981  
                         ?_sprintf 0036                  interrupt_function 0004  
                   ___wmul@product 0076                          clear_ram0 0885  
                  UARTSendString@i 0022                           _PIR1bits 000C  
                         _UARTInit 0AD8                   __size_of_I2C_ACK 0009  
                      __stringbase 07B8                  ___wmul@multiplier 0020  
                 ??_UARTSendString 0020                      isr@opcionUART 0075  
            __size_of_UARTSendChar 000C                       UARTInit@BRGH 0031  
                      ??__Umul8_16 0020  __size_of_I2C_Master_RepeatedStart 0009  
                 __size_of___fladd 0288                   __size_of___flneg 000D  
                 __size_of___flmul 0361          ?_I2C_Master_RepeatedStart 0070  
                 __size_of___flsub 0024                   __size_of___fltol 007C  
                 __size_of___lldiv 0068                   __size_of___llmod 0056  
               __end_of__stringtab 07B9                        _isdigit$912 0076  
             __end_of_I2C_MPU_Init 0C54                         sprintf@val 0046  
                  _I2C_Master_Init 08D3                           ___xxtofl 0CF8  
                  _I2C_Master_Wait 08C6                    _I2C_Master_Stop 0896  
                 __size_of_isdigit 0012                           __ptext10 08E0  
                         __ptext11 0026                           __ptext20 08B1  
                         __ptext12 0958                           __ptext21 08A8  
                         __ptext13 0C54                           __ptext22 089F  
                         __ptext14 09E4                           __ptext23 08D3  
                         __ptext15 08BA                           __ptext24 0BC7  
                         __ptext16 0AD8                           __ptext25 08ED  
                         __ptext17 0A70                           __ptext26 0896  
                         __ptext18 08FD                           __ptext27 088D  
                         __ptext19 0981                           __ptext28 08C6  
                         __ptext29 09AF                   __size_of_sprintf 024C  
                     _UARTSendChar 08BA                      __size_of_main 00CF  
                    __size_of_ftoa 00D5           __end_of_I2C_Master_Start 0896  
         __end_of_I2C_Master_Write 08FD                           isdigit@c 0077  
                UARTSendString@str 0021                           intlevel1 0000  
                        sprintf@ap 0045                          sprintf@sp 004A  
                 ___lldiv@dividend 0024                          stringcode 07B3  
          __end_of_I2C_Master_Init 08E0            __end_of_I2C_Master_Wait 08D3  
          __end_of_I2C_Master_Stop 089F             __Umul8_16@multiplicand 0076  
                         sprintf@c 004F                           sprintf@f 0036  
                 ___lldiv@quotient 0028                           stringdir 07B3  
                         stringtab 07B3                        _SSPCON2bits 0091  
                    ___fladd@signs 0030                       ___fladd@aexp 0031  
                     ___fladd@bexp 0032               __Umul8_16@multiplier 0026  
                __Umul8_16@product 0022  
